Certificate:
    Data:
        Version: 3 (0x2)
        Serial Number: 1 (0x1)
        Signature Algorithm: sha256WithRSAEncryption
        Issuer: C=CH, ST=Basel-Town, L=Basel, O=Erlio MQTT Project, OU=Testing, CN=Root CA
        Validity
            Not Before: Apr 12 07:32:56 2024 GMT
            Not After : Apr 11 07:32:56 2029 GMT
        Subject: C=CH, ST=Basel-Town, O=Erlio MQTT Project, OU=Testing, CN=Signing CA
        Subject Public Key Info:
            Public Key Algorithm: rsaEncryption
                Public-Key: (2048 bit)
                Modulus:
                    00:d1:55:8c:b8:ff:f5:fa:ad:c6:9b:18:06:d6:20:
                    66:80:ab:61:bf:b7:75:bd:8b:0f:e4:a9:e0:0a:e1:
                    3f:e4:46:b5:82:fd:ff:ca:2e:73:1c:94:d2:1f:c7:
                    91:4c:08:35:62:9f:b2:02:59:38:ee:b8:34:8f:21:
                    5d:aa:2e:97:13:b9:85:53:3d:e8:4d:4b:7c:ae:2d:
                    02:78:32:ff:10:9c:a8:e8:1e:cc:bd:40:ee:33:93:
                    a4:e2:37:09:b9:20:34:3d:38:83:b5:03:e7:14:14:
                    13:70:c5:01:f3:ce:ef:1a:40:c9:47:ea:50:38:d9:
                    93:b4:06:74:4d:0d:6d:a1:8b:30:f3:90:27:37:6e:
                    1e:90:6f:96:1b:b5:90:d5:9c:6b:36:8b:6f:f3:be:
                    a0:f3:81:94:51:25:49:53:1b:6d:31:93:8f:72:58:
                    d8:b3:8a:6f:d5:b4:1b:c0:46:73:2e:b8:16:54:90:
                    30:3e:32:92:84:83:b7:3d:f0:25:34:40:37:90:d3:
                    c1:8e:8c:99:3a:55:3d:83:15:6d:1c:b9:dc:d3:a2:
                    ea:69:c4:e7:69:61:6f:f9:cf:2c:73:9f:4b:7e:26:
                    92:e2:5c:30:24:44:13:eb:b5:87:42:9a:19:54:6d:
                    03:1e:fd:e1:b6:d4:fd:cb:75:30:85:7a:85:87:4f:
                    a6:b3
                Exponent: 65537 (0x10001)
        X509v3 extensions:
            X509v3 Subject Key Identifier: 
                B1:FA:AA:92:F4:6E:E5:92:2D:BC:B1:67:EC:25:C7:09:B3:87:B0:92
            X509v3 Authority Key Identifier: 
                39:A2:BA:15:26:30:73:21:22:8E:BE:35:D4:D8:C6:91:C4:8D:7E:63
            X509v3 Basic Constraints: 
                CA:TRUE
    Signature Algorithm: sha256WithRSAEncryption
    Signature Value:
        5d:0a:d4:4e:f1:29:10:fd:1a:c7:9c:a7:c9:5f:ca:20:e5:f0:
        0d:b8:62:d1:61:e3:04:57:b0:b1:7f:4e:67:95:01:e3:5f:55:
        65:75:f3:e4:b6:20:f3:ae:50:ea:4e:25:14:c1:ae:25:d4:6f:
        00:bf:cd:9f:d5:9d:e8:c6:af:26:96:ce:82:59:40:0c:94:2f:
        87:be:44:ca:fb:f7:86:88:a0:c7:f8:10:d3:9b:8d:8e:43:2f:
        aa:6e:2a:a0:d4:f8:42:de:d4:87:fc:f7:01:47:91:51:3b:b6:
        7a:00:d5:e8:8c:70:a0:6c:a8:6f:23:66:a9:d2:4f:e0:ef:ac:
        bb:49:ba:5f:88:ae:e2:e5:32:d6:94:a3:72:27:b4:18:74:0a:
        06:8f:a4:5e:98:c0:ed:93:b2:bf:41:e7:1f:b0:12:80:f9:5f:
        52:7e:18:71:aa:9c:d3:1d:54:48:f3:0f:03:ca:aa:2d:b7:e1:
        80:2c:ba:01:39:35:c2:05:aa:82:9d:16:ee:3b:7e:88:88:2c:
        57:68:14:fa:8a:48:77:7e:46:1f:44:c2:9c:3d:e2:40:29:17:
        eb:97:7f:75:93:d8:35:52:68:c0:0c:bf:c5:13:89:db:1b:80:
        ed:81:72:5c:41:6c:1d:6d:2e:6a:9b:10:cc:79:8c:ce:4a:8c:
        fa:2e:ef:d9
-----BEGIN CERTIFICATE-----
MIIDpDCCAoygAwIBAgIBATANBgkqhkiG9w0BAQsFADBzMQswCQYDVQQGEwJDSDET
MBEGA1UECAwKQmFzZWwtVG93bjEOMAwGA1UEBwwFQmFzZWwxGzAZBgNVBAoMEkVy
bGlvIE1RVFQgUHJvamVjdDEQMA4GA1UECwwHVGVzdGluZzEQMA4GA1UEAwwHUm9v
dCBDQTAeFw0yNDA0MTIwNzMyNTZaFw0yOTA0MTEwNzMyNTZaMGYxCzAJBgNVBAYT
AkNIMRMwEQYDVQQIDApCYXNlbC1Ub3duMRswGQYDVQQKDBJFcmxpbyBNUVRUIFBy
b2plY3QxEDAOBgNVBAsMB1Rlc3RpbmcxEzARBgNVBAMMClNpZ25pbmcgQ0EwggEi
MA0GCSqGSIb3DQEBAQUAA4IBDwAwggEKAoIBAQDRVYy4//X6rcabGAbWIGaAq2G/
t3W9iw/kqeAK4T/kRrWC/f/KLnMclNIfx5FMCDVin7ICWTjuuDSPIV2qLpcTuYVT
PehNS3yuLQJ4Mv8QnKjoHsy9QO4zk6TiNwm5IDQ9OIO1A+cUFBNwxQHzzu8aQMlH
6lA42ZO0BnRNDW2hizDzkCc3bh6Qb5YbtZDVnGs2i2/zvqDzgZRRJUlTG20xk49y
WNizim/VtBvARnMuuBZUkDA+MpKEg7c98CU0QDeQ08GOjJk6VT2DFW0cudzToupp
xOdpYW/5zyxzn0t+JpLiXDAkRBPrtYdCmhlUbQMe/eG21P3LdTCFeoWHT6azAgMB
AAGjUDBOMB0GA1UdDgQWBBSx+qqS9G7lki28sWfsJccJs4ewkjAfBgNVHSMEGDAW
gBQ5oroVJjBzISKOvjXU2MaRxI1+YzAMBgNVHRMEBTADAQH/MA0GCSqGSIb3DQEB
CwUAA4IBAQBdCtRO8SkQ/RrHnKfJX8og5fANuGLRYeMEV7Cxf05nlQHjX1VldfPk
tiDzrlDqTiUUwa4l1G8Av82f1Z3oxq8mls6CWUAMlC+HvkTK+/eGiKDH+BDTm42O
Qy+qbiqg1PhC3tSH/PcBR5FRO7Z6ANXojHCgbKhvI2ap0k/g76y7SbpfiK7i5TLW
lKNyJ7QYdAoGj6RemMDtk7K/QecfsBKA+V9SfhhxqpzTHVRI8w8Dyqott+GALLoB
OTXCBaqCnRbuO36IiCxXaBT6ikh3fkYfRMKcPeJAKRfrl391k9g1UmjADL/FE4nb
G4DtgXJcQWwdbS5qmxDMeYzOSoz6Lu/Z
-----END CERTIFICATE-----
