Certificate:
    Data:
        Version: 3 (0x2)
        Serial Number: 2 (0x2)
        Signature Algorithm: sha256WithRSAEncryption
        Issuer: C=CH, ST=Basel-Town, L=Basel, O=Erlio MQTT Project, OU=Testing, CN=Root CA
        Validity
            Not Before: Apr 12 07:33:46 2024 GMT
            Not After : Apr 11 07:33:46 2029 GMT
        Subject: C=CH, ST=Basel-Town, O=Erlio MQTT Project, OU=Testing, CN=Alternative Signing CA
        Subject Public Key Info:
            Public Key Algorithm: rsaEncryption
                Public-Key: (2048 bit)
                Modulus:
                    00:9a:29:6c:b8:88:cc:e8:ac:a1:49:34:54:b2:2a:
                    39:8a:4f:75:40:59:d6:34:c4:bc:42:38:e4:ed:85:
                    59:f7:06:44:dd:90:33:45:96:43:c5:3e:23:d3:8c:
                    ac:64:d6:d6:22:5b:5a:48:cd:1c:e9:20:6b:5c:55:
                    58:68:e2:c6:b5:b5:bf:75:6d:a4:92:ea:af:29:c9:
                    54:2b:5c:73:2b:c3:d5:fc:ec:ed:8e:70:a1:5b:05:
                    9d:ac:ad:49:e7:7d:e1:99:b3:60:c2:43:d9:42:22:
                    39:97:fc:1c:44:c8:d4:bb:b0:29:c3:57:08:0c:91:
                    1d:dd:c5:ff:78:ea:cb:67:65:32:5f:fe:3e:8c:0f:
                    e1:dc:29:c7:8a:ef:11:63:77:38:5c:b1:f9:b4:4d:
                    b5:38:2a:a1:8e:c9:88:0a:aa:a2:1b:7d:b4:a2:df:
                    0e:ba:87:7e:6b:86:61:ac:89:b6:bf:e1:6b:06:d3:
                    b9:c7:cf:aa:ae:34:4f:5e:f0:95:c7:62:58:2d:73:
                    3e:c2:68:4e:d6:2b:3d:da:af:82:20:4c:25:61:4a:
                    76:de:d3:96:de:3c:f6:27:51:bb:ad:bd:32:de:aa:
                    25:6c:1e:05:27:eb:83:04:47:d7:16:4e:72:00:bf:
                    57:23:d3:ac:01:c5:8f:61:a2:0a:02:f7:23:cd:9d:
                    00:6d
                Exponent: 65537 (0x10001)
        X509v3 extensions:
            X509v3 Subject Key Identifier: 
                67:DB:AC:EF:BF:35:1F:B4:37:15:F1:10:31:DC:EA:3F:CC:6E:11:6B
            X509v3 Authority Key Identifier: 
                39:A2:BA:15:26:30:73:21:22:8E:BE:35:D4:D8:C6:91:C4:8D:7E:63
            X509v3 Basic Constraints: 
                CA:TRUE
    Signature Algorithm: sha256WithRSAEncryption
    Signature Value:
        e5:1e:93:b2:28:b6:dc:ad:91:0a:88:87:d2:25:d7:ab:b6:a3:
        f6:b4:93:04:23:9d:cd:7c:97:6b:fc:47:7f:4c:25:b7:49:7f:
        19:d2:87:02:ea:9b:c7:c5:03:7f:cf:2c:e6:3e:d9:fd:6a:e0:
        bb:e1:51:c6:21:db:3a:b5:1f:28:24:80:d7:58:50:1f:18:00:
        27:b6:ce:be:5a:34:0d:bd:10:36:53:11:59:41:0e:a6:56:bb:
        f4:ab:fe:49:02:78:c5:5c:bf:09:13:09:e0:96:3c:c6:c2:11:
        b9:0d:a3:fd:28:a0:9f:85:43:8c:e4:ea:5f:d7:ca:6a:7f:e1:
        42:58:80:67:97:bc:9d:49:19:cc:7b:00:20:4a:9d:00:ec:6b:
        e6:64:da:d8:f6:13:00:9c:4d:13:53:37:9c:94:96:09:19:7f:
        ed:d9:8b:52:4b:44:73:1c:93:60:a8:5c:a5:ac:65:33:75:15:
        4e:5c:e8:9d:57:3a:27:22:1b:5d:ac:e3:33:d0:65:27:57:23:
        06:b6:9b:c5:0d:23:eb:87:fa:84:51:dd:6d:26:3c:06:c3:f9:
        de:38:ee:b0:25:d8:68:5f:a5:be:fc:b1:63:45:c9:d0:2f:c5:
        00:64:96:2d:c7:c6:d1:ae:ac:d0:fb:c8:d3:1a:f0:b7:df:69:
        1e:f3:39:ba
-----BEGIN CERTIFICATE-----
MIIDsDCCApigAwIBAgIBAjANBgkqhkiG9w0BAQsFADBzMQswCQYDVQQGEwJDSDET
MBEGA1UECAwKQmFzZWwtVG93bjEOMAwGA1UEBwwFQmFzZWwxGzAZBgNVBAoMEkVy
bGlvIE1RVFQgUHJvamVjdDEQMA4GA1UECwwHVGVzdGluZzEQMA4GA1UEAwwHUm9v
dCBDQTAeFw0yNDA0MTIwNzMzNDZaFw0yOTA0MTEwNzMzNDZaMHIxCzAJBgNVBAYT
AkNIMRMwEQYDVQQIDApCYXNlbC1Ub3duMRswGQYDVQQKDBJFcmxpbyBNUVRUIFBy
b2plY3QxEDAOBgNVBAsMB1Rlc3RpbmcxHzAdBgNVBAMMFkFsdGVybmF0aXZlIFNp
Z25pbmcgQ0EwggEiMA0GCSqGSIb3DQEBAQUAA4IBDwAwggEKAoIBAQCaKWy4iMzo
rKFJNFSyKjmKT3VAWdY0xLxCOOTthVn3BkTdkDNFlkPFPiPTjKxk1tYiW1pIzRzp
IGtcVVho4sa1tb91baSS6q8pyVQrXHMrw9X87O2OcKFbBZ2srUnnfeGZs2DCQ9lC
IjmX/BxEyNS7sCnDVwgMkR3dxf946stnZTJf/j6MD+HcKceK7xFjdzhcsfm0TbU4
KqGOyYgKqqIbfbSi3w66h35rhmGsiba/4WsG07nHz6quNE9e8JXHYlgtcz7CaE7W
Kz3ar4IgTCVhSnbe05bePPYnUbutvTLeqiVsHgUn64MER9cWTnIAv1cj06wBxY9h
ogoC9yPNnQBtAgMBAAGjUDBOMB0GA1UdDgQWBBRn26zvvzUftDcV8RAx3Oo/zG4R
azAfBgNVHSMEGDAWgBQ5oroVJjBzISKOvjXU2MaRxI1+YzAMBgNVHRMEBTADAQH/
MA0GCSqGSIb3DQEBCwUAA4IBAQDlHpOyKLbcrZEKiIfSJdertqP2tJMEI53NfJdr
/Ed/TCW3SX8Z0ocC6pvHxQN/zyzmPtn9auC74VHGIds6tR8oJIDXWFAfGAAnts6+
WjQNvRA2UxFZQQ6mVrv0q/5JAnjFXL8JEwngljzGwhG5DaP9KKCfhUOM5Opf18pq
f+FCWIBnl7ydSRnMewAgSp0A7GvmZNrY9hMAnE0TUzeclJYJGX/t2YtSS0RzHJNg
qFylrGUzdRVOXOidVzonIhtdrOMz0GUnVyMGtpvFDSPrh/qEUd1tJjwGw/neOO6w
JdhoX6W+/LFjRcnQL8UAZJYtx8bRrqzQ+8jTGvC332ke8zm6
-----END CERTIFICATE-----
