Certificate:
    Data:
        Version: 3 (0x2)
        Serial Number: 1 (0x1)
        Signature Algorithm: sha256WithRSAEncryption
        Issuer: C=CH, ST=Basel-Town, O=Erlio MQTT Project, OU=Testing, CN=Signing CA
        Validity
            Not Before: Apr 12 07:34:13 2024 GMT
            Not After : Apr 11 07:34:13 2029 GMT
        Subject: C=CH, ST=Basel-Town, L=Basel, O=Server, OU=Production, CN=localhost
        Subject Public Key Info:
            Public Key Algorithm: rsaEncryption
                Public-Key: (2048 bit)
                Modulus:
                    00:b6:84:fe:f4:f0:2f:cb:bb:39:ff:02:e8:ce:ee:
                    6f:07:06:a4:83:3c:f4:e1:6c:4e:19:ae:d7:21:d7:
                    3b:2a:2a:7e:05:3c:8f:7d:21:36:7d:ef:33:13:5e:
                    c0:1b:1a:71:fd:86:ec:73:e3:c0:bf:0a:2a:1d:91:
                    53:42:8e:f2:0b:e2:68:f2:6a:b8:9b:f1:b7:93:68:
                    32:45:71:b6:b9:69:aa:03:87:21:5f:e7:e5:a4:3e:
                    2e:98:6f:30:31:88:9c:61:c5:c9:de:f6:35:fe:0b:
                    96:a4:b9:26:37:5d:e8:39:12:b6:07:55:e2:22:24:
                    39:5b:73:45:29:6f:78:b8:32:ad:73:e5:fa:a9:6d:
                    0c:2f:80:17:b6:0d:ff:33:57:38:5d:0d:5d:f2:32:
                    04:5c:a8:b1:70:7f:36:27:60:e1:03:52:e5:cf:54:
                    f8:d6:83:f7:13:94:d3:15:86:3a:40:7a:fe:bc:3d:
                    1e:f0:dc:69:1f:0b:96:e9:e4:b1:2a:e0:b2:3a:42:
                    ea:17:57:45:3d:2d:41:6e:16:07:de:b8:63:d2:ed:
                    19:e6:cd:df:cb:a1:68:a9:5f:5d:a0:59:a9:f9:77:
                    27:d5:93:a3:a2:7b:bc:dd:bd:fd:86:57:10:43:b6:
                    03:c6:b2:2f:4a:2e:81:04:87:aa:79:ad:d2:e8:ed:
                    67:95
                Exponent: 65537 (0x10001)
        X509v3 extensions:
            X509v3 Basic Constraints: 
                CA:FALSE
            Netscape Comment: 
                OpenSSL Generated Certificate
            X509v3 Subject Key Identifier: 
                AF:C1:97:F5:3F:CC:02:6E:4A:A0:75:94:F6:35:3C:B6:E3:04:46:3E
            X509v3 Authority Key Identifier: 
                B1:FA:AA:92:F4:6E:E5:92:2D:BC:B1:67:EC:25:C7:09:B3:87:B0:92
    Signature Algorithm: sha256WithRSAEncryption
    Signature Value:
        83:c8:7a:fa:96:8a:91:70:6a:ee:57:a6:a4:b1:ff:24:12:65:
        4f:35:37:8e:b5:5a:e3:56:a6:09:97:12:30:7b:b1:68:3c:70:
        d5:07:16:5a:8f:e5:bb:a4:c8:db:d9:27:c8:70:1b:3c:50:79:
        37:c3:5e:05:96:2c:a3:9b:e7:4b:12:49:aa:6c:67:cc:be:32:
        09:81:52:e8:9c:fb:22:49:60:15:09:36:49:35:dd:8e:22:c3:
        96:4d:34:e5:0f:8a:db:49:a1:3d:a2:b7:ec:17:1f:01:cf:e8:
        f6:d1:d9:51:2f:e8:27:fd:a2:0d:80:b8:4b:1a:2a:87:40:3b:
        f0:e0:64:44:58:8e:77:bf:d1:b3:74:f8:ae:7b:70:41:10:79:
        ac:d8:37:e1:01:08:45:32:4e:dc:52:90:49:e6:6e:f5:38:4e:
        b9:80:40:1f:e8:dd:73:f4:6a:96:21:cc:07:21:6b:54:57:58:
        95:3d:f9:9f:f1:53:4d:48:20:cf:00:3d:51:6b:a1:52:9a:8a:
        7d:a2:86:01:93:15:d7:03:d0:cd:11:df:35:24:d7:f2:13:ba:
        30:c8:0a:5f:71:ab:3c:02:a6:fa:e1:a8:ee:77:5b:dd:a9:31:
        34:ab:59:2a:1f:bd:a9:59:fd:d5:e1:f7:ef:d6:f1:08:d6:ee:
        87:87:b6:1c
-----BEGIN CERTIFICATE-----
MIIDyDCCArCgAwIBAgIBATANBgkqhkiG9w0BAQsFADBmMQswCQYDVQQGEwJDSDET
MBEGA1UECAwKQmFzZWwtVG93bjEbMBkGA1UECgwSRXJsaW8gTVFUVCBQcm9qZWN0
MRAwDgYDVQQLDAdUZXN0aW5nMRMwEQYDVQQDDApTaWduaW5nIENBMB4XDTI0MDQx
MjA3MzQxM1oXDTI5MDQxMTA3MzQxM1owbDELMAkGA1UEBhMCQ0gxEzARBgNVBAgM
CkJhc2VsLVRvd24xDjAMBgNVBAcMBUJhc2VsMQ8wDQYDVQQKDAZTZXJ2ZXIxEzAR
BgNVBAsMClByb2R1Y3Rpb24xEjAQBgNVBAMMCWxvY2FsaG9zdDCCASIwDQYJKoZI
hvcNAQEBBQADggEPADCCAQoCggEBALaE/vTwL8u7Of8C6M7ubwcGpIM89OFsThmu
1yHXOyoqfgU8j30hNn3vMxNewBsacf2G7HPjwL8KKh2RU0KO8gviaPJquJvxt5No
MkVxtrlpqgOHIV/n5aQ+LphvMDGInGHFyd72Nf4LlqS5Jjdd6DkStgdV4iIkOVtz
RSlveLgyrXPl+qltDC+AF7YN/zNXOF0NXfIyBFyosXB/Nidg4QNS5c9U+NaD9xOU
0xWGOkB6/rw9HvDcaR8LlunksSrgsjpC6hdXRT0tQW4WB964Y9LtGebN38uhaKlf
XaBZqfl3J9WTo6J7vN29/YZXEEO2A8ayL0ougQSHqnmt0ujtZ5UCAwEAAaN7MHkw
CQYDVR0TBAIwADAsBglghkgBhvhCAQ0EHxYdT3BlblNTTCBHZW5lcmF0ZWQgQ2Vy
dGlmaWNhdGUwHQYDVR0OBBYEFK/Bl/U/zAJuSqB1lPY1PLbjBEY+MB8GA1UdIwQY
MBaAFLH6qpL0buWSLbyxZ+wlxwmzh7CSMA0GCSqGSIb3DQEBCwUAA4IBAQCDyHr6
loqRcGruV6aksf8kEmVPNTeOtVrjVqYJlxIwe7FoPHDVBxZaj+W7pMjb2SfIcBs8
UHk3w14Fliyjm+dLEkmqbGfMvjIJgVLonPsiSWAVCTZJNd2OIsOWTTTlD4rbSaE9
orfsFx8Bz+j20dlRL+gn/aINgLhLGiqHQDvw4GREWI53v9GzdPiue3BBEHms2Dfh
AQhFMk7cUpBJ5m71OE65gEAf6N1z9GqWIcwHIWtUV1iVPfmf8VNNSCDPAD1Ra6FS
mop9ooYBkxXXA9DNEd81JNfyE7owyApfcas8Aqb64ajud1vdqTE0q1kqH72pWf3V
4ffv1vEI1u6Hh7Yc
-----END CERTIFICATE-----
