Certificate:
    Data:
        Version: 3 (0x2)
        Serial Number: 2 (0x2)
        Signature Algorithm: sha256WithRSAEncryption
        Issuer: C=CH, ST=Basel-Town, O=Erlio MQTT Project, OU=Testing, CN=Signing CA
        Validity
            Not Before: Apr 12 07:34:20 2024 GMT
            Not After : Apr 11 07:34:20 2029 GMT
        Subject: C=CH, ST=Basel-Town, L=Basel, O=Server, OU=Production, CN=test client
        Subject Public Key Info:
            Public Key Algorithm: rsaEncryption
                Public-Key: (2048 bit)
                Modulus:
                    00:aa:8e:e7:80:26:04:a0:99:4c:11:ee:9d:48:65:
                    11:8f:bb:fb:cd:fd:69:31:eb:99:78:51:6a:5a:08:
                    ff:35:05:dc:8c:36:b3:d6:91:6d:0c:29:fe:6b:6c:
                    4a:e0:4f:dc:6a:d5:5b:79:14:1a:8f:a3:a2:94:af:
                    88:30:28:cb:71:7b:84:34:34:b3:0d:b0:54:3f:8c:
                    95:db:81:f2:a6:a0:10:bc:c9:0c:b8:27:4c:78:81:
                    13:51:d5:8c:de:59:79:c3:23:7c:fd:24:d5:e9:f2:
                    f0:d6:21:32:e4:65:93:08:31:92:8a:d8:37:da:81:
                    89:36:5e:86:ba:93:3b:49:52:e3:48:4f:20:49:e6:
                    04:76:02:04:97:ce:65:8f:8e:b2:40:63:6d:12:a5:
                    98:23:6f:2c:f6:53:f3:31:90:55:cf:1a:72:c6:58:
                    72:a4:d8:8b:d5:7e:34:fa:eb:ef:f4:89:03:e7:01:
                    ed:f5:5d:30:ef:a7:cb:6b:62:96:a1:08:ba:8e:87:
                    88:c7:df:b5:17:29:7d:f4:79:4e:ca:07:b9:91:12:
                    bb:de:79:18:cf:0d:bb:2a:cb:66:0e:0f:bb:e4:b9:
                    7a:1c:cb:89:f5:9f:d1:82:23:1f:33:81:95:15:c4:
                    d6:d8:45:54:0f:c0:81:51:89:a5:3c:9e:7b:2a:97:
                    7d:e7
                Exponent: 65537 (0x10001)
        X509v3 extensions:
            X509v3 Basic Constraints: 
                CA:FALSE
            Netscape Comment: 
                OpenSSL Generated Certificate
            X509v3 Subject Key Identifier: 
                5B:8F:32:36:E5:0A:46:65:10:D0:1B:2D:D1:35:A2:2C:6A:93:2C:A0
            X509v3 Authority Key Identifier: 
                B1:FA:AA:92:F4:6E:E5:92:2D:BC:B1:67:EC:25:C7:09:B3:87:B0:92
    Signature Algorithm: sha256WithRSAEncryption
    Signature Value:
        1f:d6:88:76:da:3c:cd:11:cd:33:2a:69:50:f8:42:68:bf:6a:
        71:88:46:97:79:26:b6:0a:70:14:4a:c4:b8:3d:a9:c0:cc:29:
        c3:c1:33:9d:33:18:6d:4b:81:1a:39:27:95:37:e9:e5:79:3d:
        4a:37:98:68:fe:a1:5b:0a:9c:be:48:5d:71:6b:99:d7:e2:4f:
        85:ed:83:5e:6a:67:7a:b4:e2:a3:77:01:6a:59:55:4f:db:e4:
        11:3c:8e:48:00:55:8d:0a:f8:10:2a:73:9e:f6:78:14:de:1f:
        72:b5:ac:ff:ef:d8:90:28:1a:c2:9b:7c:a2:00:7b:9d:d2:ff:
        bc:fc:0b:30:1a:a1:63:83:3c:75:4f:62:a1:28:8d:69:e5:22:
        cd:08:73:73:86:90:5c:40:33:0c:e4:52:60:a5:ad:4e:81:33:
        35:b3:04:71:6a:09:02:c7:56:39:ee:9c:7e:91:7f:a1:7e:bf:
        f7:89:17:da:4a:cf:60:c8:47:47:f0:3b:35:f7:bd:1e:8d:d3:
        4a:ac:2b:df:43:52:a4:38:e3:26:de:48:3a:44:54:79:14:b0:
        21:57:0d:f3:09:d3:eb:fe:c7:35:25:2c:d2:7c:67:ad:97:18:
        65:49:ee:24:bc:67:57:06:17:ea:a0:7c:53:39:c6:cd:06:6c:
        03:dd:92:fc
-----BEGIN CERTIFICATE-----
MIIDyjCCArKgAwIBAgIBAjANBgkqhkiG9w0BAQsFADBmMQswCQYDVQQGEwJDSDET
MBEGA1UECAwKQmFzZWwtVG93bjEbMBkGA1UECgwSRXJsaW8gTVFUVCBQcm9qZWN0
MRAwDgYDVQQLDAdUZXN0aW5nMRMwEQYDVQQDDApTaWduaW5nIENBMB4XDTI0MDQx
MjA3MzQyMFoXDTI5MDQxMTA3MzQyMFowbjELMAkGA1UEBhMCQ0gxEzARBgNVBAgM
CkJhc2VsLVRvd24xDjAMBgNVBAcMBUJhc2VsMQ8wDQYDVQQKDAZTZXJ2ZXIxEzAR
BgNVBAsMClByb2R1Y3Rpb24xFDASBgNVBAMMC3Rlc3QgY2xpZW50MIIBIjANBgkq
hkiG9w0BAQEFAAOCAQ8AMIIBCgKCAQEAqo7ngCYEoJlMEe6dSGURj7v7zf1pMeuZ
eFFqWgj/NQXcjDaz1pFtDCn+a2xK4E/catVbeRQaj6OilK+IMCjLcXuENDSzDbBU
P4yV24HypqAQvMkMuCdMeIETUdWM3ll5wyN8/STV6fLw1iEy5GWTCDGSitg32oGJ
Nl6GupM7SVLjSE8gSeYEdgIEl85lj46yQGNtEqWYI28s9lPzMZBVzxpyxlhypNiL
1X40+uvv9IkD5wHt9V0w76fLa2KWoQi6joeIx9+1Fyl99HlOyge5kRK73nkYzw27
KstmDg+75Ll6HMuJ9Z/RgiMfM4GVFcTW2EVUD8CBUYmlPJ57Kpd95wIDAQABo3sw
eTAJBgNVHRMEAjAAMCwGCWCGSAGG+EIBDQQfFh1PcGVuU1NMIEdlbmVyYXRlZCBD
ZXJ0aWZpY2F0ZTAdBgNVHQ4EFgQUW48yNuUKRmUQ0Bst0TWiLGqTLKAwHwYDVR0j
BBgwFoAUsfqqkvRu5ZItvLFn7CXHCbOHsJIwDQYJKoZIhvcNAQELBQADggEBAB/W
iHbaPM0RzTMqaVD4Qmi/anGIRpd5JrYKcBRKxLg9qcDMKcPBM50zGG1LgRo5J5U3
6eV5PUo3mGj+oVsKnL5IXXFrmdfiT4Xtg15qZ3q04qN3AWpZVU/b5BE8jkgAVY0K
+BAqc572eBTeH3K1rP/v2JAoGsKbfKIAe53S/7z8CzAaoWODPHVPYqEojWnlIs0I
c3OGkFxAMwzkUmClrU6BMzWzBHFqCQLHVjnunH6Rf6F+v/eJF9pKz2DIR0fwOzX3
vR6N00qsK99DUqQ44ybeSDpEVHkUsCFXDfMJ0+v+xzUlLNJ8Z62XGGVJ7iS8Z1cG
F+qgfFM5xs0GbAPdkvw=
-----END CERTIFICATE-----
