Certificate:
    Data:
        Version: 3 (0x2)
        Serial Number: 3 (0x3)
        Signature Algorithm: sha256WithRSAEncryption
        Issuer: C=CH, ST=Basel-Town, O=Erlio MQTT Project, OU=Testing, CN=Signing CA
        Validity
            Not Before: Aug 20 00:00:00 2012 GMT
            Not After : Aug 21 00:00:00 2012 GMT
        Subject: C=CH, ST=Basel-Town, L=Basel, O=Server, OU=Production, CN=test client expired
        Subject Public Key Info:
            Public Key Algorithm: rsaEncryption
                Public-Key: (2048 bit)
                Modulus:
                    00:aa:8e:e7:80:26:04:a0:99:4c:11:ee:9d:48:65:
                    11:8f:bb:fb:cd:fd:69:31:eb:99:78:51:6a:5a:08:
                    ff:35:05:dc:8c:36:b3:d6:91:6d:0c:29:fe:6b:6c:
                    4a:e0:4f:dc:6a:d5:5b:79:14:1a:8f:a3:a2:94:af:
                    88:30:28:cb:71:7b:84:34:34:b3:0d:b0:54:3f:8c:
                    95:db:81:f2:a6:a0:10:bc:c9:0c:b8:27:4c:78:81:
                    13:51:d5:8c:de:59:79:c3:23:7c:fd:24:d5:e9:f2:
                    f0:d6:21:32:e4:65:93:08:31:92:8a:d8:37:da:81:
                    89:36:5e:86:ba:93:3b:49:52:e3:48:4f:20:49:e6:
                    04:76:02:04:97:ce:65:8f:8e:b2:40:63:6d:12:a5:
                    98:23:6f:2c:f6:53:f3:31:90:55:cf:1a:72:c6:58:
                    72:a4:d8:8b:d5:7e:34:fa:eb:ef:f4:89:03:e7:01:
                    ed:f5:5d:30:ef:a7:cb:6b:62:96:a1:08:ba:8e:87:
                    88:c7:df:b5:17:29:7d:f4:79:4e:ca:07:b9:91:12:
                    bb:de:79:18:cf:0d:bb:2a:cb:66:0e:0f:bb:e4:b9:
                    7a:1c:cb:89:f5:9f:d1:82:23:1f:33:81:95:15:c4:
                    d6:d8:45:54:0f:c0:81:51:89:a5:3c:9e:7b:2a:97:
                    7d:e7
                Exponent: 65537 (0x10001)
        X509v3 extensions:
            X509v3 Basic Constraints: 
                CA:FALSE
            Netscape Comment: 
                OpenSSL Generated Certificate
            X509v3 Subject Key Identifier: 
                5B:8F:32:36:E5:0A:46:65:10:D0:1B:2D:D1:35:A2:2C:6A:93:2C:A0
            X509v3 Authority Key Identifier: 
                B1:FA:AA:92:F4:6E:E5:92:2D:BC:B1:67:EC:25:C7:09:B3:87:B0:92
    Signature Algorithm: sha256WithRSAEncryption
    Signature Value:
        1a:d7:3c:61:31:4b:ef:c5:fd:70:c4:e5:1a:8b:23:31:08:60:
        39:4d:dd:21:3b:31:11:bc:e3:57:93:f5:41:97:f4:50:2b:1f:
        83:8a:dc:a5:3b:b0:4c:b5:fc:28:42:fc:f6:e0:05:8d:0a:91:
        65:0b:ef:5c:a3:44:d3:1f:f9:21:8d:e6:5e:91:da:e3:d9:16:
        44:e9:d4:b4:aa:1e:ba:11:27:c9:7a:d9:13:3f:e3:15:bc:ea:
        c4:95:9a:f8:dd:8d:bb:69:1c:74:95:29:19:d1:48:e2:d3:e0:
        71:82:79:bf:cc:71:ec:94:f3:51:89:1e:f3:52:f6:90:fc:34:
        71:d8:eb:89:af:5f:31:1e:b0:da:43:12:c3:64:c0:cd:a1:d6:
        d8:7c:c1:a5:89:fc:dd:63:bb:5b:fb:e8:62:2b:57:33:0f:06:
        1b:f2:66:1d:66:ea:7d:fe:62:28:bb:3a:88:3c:36:1b:4d:ab:
        6f:e2:80:cc:76:bf:76:05:c1:e4:86:f1:a7:2e:77:59:e6:bf:
        53:a9:d1:7b:1e:59:89:2c:89:82:82:12:a7:b3:b7:d9:d9:f3:
        ec:35:ba:f5:36:e0:b8:c1:35:3f:81:e6:3f:d0:65:33:db:5e:
        d5:02:5f:e2:5b:aa:f2:06:5e:b4:da:f8:c1:f5:42:f2:85:81:
        18:7f:17:27
-----BEGIN CERTIFICATE-----
MIID0jCCArqgAwIBAgIBAzANBgkqhkiG9w0BAQsFADBmMQswCQYDVQQGEwJDSDET
MBEGA1UECAwKQmFzZWwtVG93bjEbMBkGA1UECgwSRXJsaW8gTVFUVCBQcm9qZWN0
MRAwDgYDVQQLDAdUZXN0aW5nMRMwEQYDVQQDDApTaWduaW5nIENBMB4XDTEyMDgy
MDAwMDAwMFoXDTEyMDgyMTAwMDAwMFowdjELMAkGA1UEBhMCQ0gxEzARBgNVBAgM
CkJhc2VsLVRvd24xDjAMBgNVBAcMBUJhc2VsMQ8wDQYDVQQKDAZTZXJ2ZXIxEzAR
BgNVBAsMClByb2R1Y3Rpb24xHDAaBgNVBAMME3Rlc3QgY2xpZW50IGV4cGlyZWQw
ggEiMA0GCSqGSIb3DQEBAQUAA4IBDwAwggEKAoIBAQCqjueAJgSgmUwR7p1IZRGP
u/vN/Wkx65l4UWpaCP81BdyMNrPWkW0MKf5rbErgT9xq1Vt5FBqPo6KUr4gwKMtx
e4Q0NLMNsFQ/jJXbgfKmoBC8yQy4J0x4gRNR1YzeWXnDI3z9JNXp8vDWITLkZZMI
MZKK2DfagYk2Xoa6kztJUuNITyBJ5gR2AgSXzmWPjrJAY20SpZgjbyz2U/MxkFXP
GnLGWHKk2IvVfjT66+/0iQPnAe31XTDvp8trYpahCLqOh4jH37UXKX30eU7KB7mR
ErveeRjPDbsqy2YOD7vkuXocy4n1n9GCIx8zgZUVxNbYRVQPwIFRiaU8nnsql33n
AgMBAAGjezB5MAkGA1UdEwQCMAAwLAYJYIZIAYb4QgENBB8WHU9wZW5TU0wgR2Vu
ZXJhdGVkIENlcnRpZmljYXRlMB0GA1UdDgQWBBRbjzI25QpGZRDQGy3RNaIsapMs
oDAfBgNVHSMEGDAWgBSx+qqS9G7lki28sWfsJccJs4ewkjANBgkqhkiG9w0BAQsF
AAOCAQEAGtc8YTFL78X9cMTlGosjMQhgOU3dITsxEbzjV5P1QZf0UCsfg4rcpTuw
TLX8KEL89uAFjQqRZQvvXKNE0x/5IY3mXpHa49kWROnUtKoeuhEnyXrZEz/jFbzq
xJWa+N2Nu2kcdJUpGdFI4tPgcYJ5v8xx7JTzUYke81L2kPw0cdjria9fMR6w2kMS
w2TAzaHW2HzBpYn83WO7W/voYitXMw8GG/JmHWbqff5iKLs6iDw2G02rb+KAzHa/
dgXB5Ibxpy53Wea/U6nRex5ZiSyJgoISp7O32dnz7DW69TbguME1P4HmP9BlM9te
1QJf4luq8gZetNr4wfVC8oWBGH8XJw==
-----END CERTIFICATE-----
