Certificate:
    Data:
        Version: 3 (0x2)
        Serial Number: 4 (0x4)
        Signature Algorithm: sha256WithRSAEncryption
        Issuer: C=CH, ST=Basel-Town, O=Erlio MQTT Project, OU=Testing, CN=Signing CA
        Validity
            Not Before: Apr 12 07:34:29 2024 GMT
            Not After : Apr 11 07:34:29 2029 GMT
        Subject: C=CH, ST=Basel-Town, L=Basel, O=Server, OU=Production, CN=test client revoked
        Subject Public Key Info:
            Public Key Algorithm: rsaEncryption
                Public-Key: (2048 bit)
                Modulus:
                    00:d3:78:82:f8:ae:e5:5f:15:75:1c:cd:1f:23:ab:
                    f4:48:c3:a3:bf:7e:3f:f5:df:c0:83:bc:af:1b:53:
                    e2:01:71:e8:72:e4:5a:54:0a:a8:57:2b:1e:05:06:
                    ef:38:52:6b:87:15:38:1a:18:45:14:b8:f1:69:0e:
                    10:e6:5e:a1:28:24:6a:a2:29:bd:bd:d8:7f:7c:24:
                    bd:8e:92:0e:1a:c7:0e:33:49:77:65:14:23:66:96:
                    23:f5:bf:20:1d:16:e5:83:f8:31:88:17:84:cc:c6:
                    8b:f6:79:34:f0:b9:b4:7c:c2:5b:d6:70:79:8d:f9:
                    9b:5a:12:80:f1:6c:75:77:71:24:1d:77:fd:ff:b8:
                    1c:a7:09:66:ef:fa:0d:80:65:1b:6c:80:d6:82:64:
                    2f:9b:9f:c8:c3:97:64:c3:37:de:53:3c:53:d7:5f:
                    05:7e:0c:ef:a4:fd:65:43:4f:dd:46:42:79:8e:49:
                    35:b3:60:65:9d:2a:b9:8e:9e:95:fa:25:4b:06:ed:
                    d4:dd:5d:4d:94:b6:2f:ce:81:ae:f5:00:51:16:fb:
                    1a:d1:1d:ca:69:1b:3c:48:67:c1:e4:4e:ed:e9:84:
                    5d:46:44:f4:8c:8b:54:02:4f:04:b3:ff:a2:5d:6a:
                    63:ec:1b:fb:22:b7:44:c7:cf:e8:5e:79:f4:3f:82:
                    8d:3b
                Exponent: 65537 (0x10001)
        X509v3 extensions:
            X509v3 Basic Constraints: 
                CA:FALSE
            Netscape Comment: 
                OpenSSL Generated Certificate
            X509v3 Subject Key Identifier: 
                54:A2:DE:48:DB:03:7F:21:55:80:32:09:09:1A:CD:B4:D2:5F:1D:C3
            X509v3 Authority Key Identifier: 
                B1:FA:AA:92:F4:6E:E5:92:2D:BC:B1:67:EC:25:C7:09:B3:87:B0:92
    Signature Algorithm: sha256WithRSAEncryption
    Signature Value:
        86:90:32:9e:56:ab:6c:64:a9:61:61:ae:aa:7a:d3:d1:72:1f:
        6f:ba:a8:7d:44:b8:8e:34:ff:88:4d:54:3c:66:5c:70:81:cb:
        ed:5f:ca:87:a4:6c:fa:23:23:db:05:d7:9f:5b:d5:6b:11:5b:
        2b:31:0e:b6:69:0b:17:d1:99:3a:64:58:84:c0:32:9c:ae:64:
        08:fc:90:6a:21:82:af:d6:36:df:77:e2:16:da:2b:5d:da:6e:
        05:f1:f9:87:58:c6:7c:3b:3d:58:ca:9e:e8:b5:0f:8b:82:5d:
        3b:92:28:4a:1c:db:40:4a:68:8a:e4:d2:03:0f:ad:29:03:b7:
        f7:06:e8:c4:32:3d:49:ed:a6:61:ce:13:0b:b5:35:49:14:d9:
        59:18:a6:62:1b:69:6f:96:ec:9b:b5:ec:20:34:9e:a5:c9:1e:
        99:8f:97:4b:e3:8d:7a:5c:bc:4f:2b:76:cd:d2:95:b9:08:7c:
        9d:4b:41:04:b4:2f:fa:7f:d8:24:47:3a:45:61:41:e3:fc:76:
        17:35:19:e3:00:b4:38:3f:f9:5c:9f:db:cb:c8:f8:c6:99:17:
        85:f1:a0:4b:10:ce:88:fc:33:a7:93:2c:18:bc:77:c6:9d:bd:
        41:9b:3c:10:a2:68:4b:17:be:dd:0c:94:5d:ac:6e:6f:7c:65:
        e2:6c:f2:13
-----BEGIN CERTIFICATE-----
MIID0jCCArqgAwIBAgIBBDANBgkqhkiG9w0BAQsFADBmMQswCQYDVQQGEwJDSDET
MBEGA1UECAwKQmFzZWwtVG93bjEbMBkGA1UECgwSRXJsaW8gTVFUVCBQcm9qZWN0
MRAwDgYDVQQLDAdUZXN0aW5nMRMwEQYDVQQDDApTaWduaW5nIENBMB4XDTI0MDQx
MjA3MzQyOVoXDTI5MDQxMTA3MzQyOVowdjELMAkGA1UEBhMCQ0gxEzARBgNVBAgM
CkJhc2VsLVRvd24xDjAMBgNVBAcMBUJhc2VsMQ8wDQYDVQQKDAZTZXJ2ZXIxEzAR
BgNVBAsMClByb2R1Y3Rpb24xHDAaBgNVBAMME3Rlc3QgY2xpZW50IHJldm9rZWQw
ggEiMA0GCSqGSIb3DQEBAQUAA4IBDwAwggEKAoIBAQDTeIL4ruVfFXUczR8jq/RI
w6O/fj/138CDvK8bU+IBcehy5FpUCqhXKx4FBu84UmuHFTgaGEUUuPFpDhDmXqEo
JGqiKb292H98JL2Okg4axw4zSXdlFCNmliP1vyAdFuWD+DGIF4TMxov2eTTwubR8
wlvWcHmN+ZtaEoDxbHV3cSQdd/3/uBynCWbv+g2AZRtsgNaCZC+bn8jDl2TDN95T
PFPXXwV+DO+k/WVDT91GQnmOSTWzYGWdKrmOnpX6JUsG7dTdXU2Uti/Oga71AFEW
+xrRHcppGzxIZ8HkTu3phF1GRPSMi1QCTwSz/6JdamPsG/sit0THz+heefQ/go07
AgMBAAGjezB5MAkGA1UdEwQCMAAwLAYJYIZIAYb4QgENBB8WHU9wZW5TU0wgR2Vu
ZXJhdGVkIENlcnRpZmljYXRlMB0GA1UdDgQWBBRUot5I2wN/IVWAMgkJGs200l8d
wzAfBgNVHSMEGDAWgBSx+qqS9G7lki28sWfsJccJs4ewkjANBgkqhkiG9w0BAQsF
AAOCAQEAhpAynlarbGSpYWGuqnrT0XIfb7qofUS4jjT/iE1UPGZccIHL7V/Kh6Rs
+iMj2wXXn1vVaxFbKzEOtmkLF9GZOmRYhMAynK5kCPyQaiGCr9Y233fiFtorXdpu
BfH5h1jGfDs9WMqe6LUPi4JdO5IoShzbQEpoiuTSAw+tKQO39wboxDI9Se2mYc4T
C7U1SRTZWRimYhtpb5bsm7XsIDSepckemY+XS+ONely8Tyt2zdKVuQh8nUtBBLQv
+n/YJEc6RWFB4/x2FzUZ4wC0OD/5XJ/by8j4xpkXhfGgSxDOiPwzp5MsGLx3xp29
QZs8EKJoSxe+3QyUXaxub3xl4mzyEw==
-----END CERTIFICATE-----
