Certificate:
    Data:
        Version: 3 (0x2)
        Serial Number: 6 (0x6)
        Signature Algorithm: sha256WithRSAEncryption
        Issuer: C=CH, ST=Basel-Town, O=Erlio MQTT Project, OU=Testing, CN=Signing CA
        Validity
            Not Before: Jul 17 16:01:00 2026 GMT
            Not After : Jul 16 16:01:00 2031 GMT
        Subject: C=CH, ST=Basel-Town, L=Basel, O=Server, OU=Production, CN=test client revoked
        Subject Public Key Info:
            Public Key Algorithm: rsaEncryption
                Public-Key: (2048 bit)
                Modulus:
                    00:b3:97:6e:11:91:27:0d:2e:76:be:d6:8d:8c:28:
                    5b:49:a0:15:0a:c8:65:bd:e4:d4:7c:fa:d1:13:20:
                    2e:5d:04:5e:c4:0c:bb:1f:cf:d2:78:3d:f9:bb:f8:
                    3b:2c:39:84:1b:ec:e7:44:58:7a:f2:52:93:43:36:
                    50:8f:aa:6f:46:65:a0:70:86:b0:d6:b5:5c:8e:c5:
                    32:b9:a3:4e:00:c7:eb:a0:72:9d:80:72:77:ff:f5:
                    6f:cd:94:a0:a4:dd:20:ed:53:69:61:7d:08:71:b8:
                    57:df:a8:8c:64:d5:32:75:b1:1e:25:c4:3b:42:cd:
                    13:8a:1f:c6:3c:e1:31:14:b0:d4:43:00:a3:3f:3a:
                    9a:b4:17:8d:40:66:53:80:13:e1:08:2f:a4:49:fb:
                    47:4c:de:62:09:ef:92:4e:fb:5a:d6:83:bd:b4:fd:
                    fe:4b:6c:08:62:3c:a5:5d:c0:68:fd:52:4c:e0:ed:
                    30:c5:19:e9:8a:20:df:57:69:73:47:2b:9d:a4:98:
                    a3:86:20:59:95:17:29:54:a9:1a:91:c9:dc:c2:ae:
                    f9:02:be:b7:71:10:73:bc:a8:1e:28:4b:3d:92:ee:
                    ce:c3:43:e1:de:b5:8d:ca:50:67:f9:05:65:d8:ff:
                    be:ae:e7:92:de:c3:c3:4e:e8:b2:c1:95:db:ff:6f:
                    3d:79
                Exponent: 65537 (0x10001)
        X509v3 extensions:
            X509v3 Basic Constraints: 
                CA:FALSE
            Netscape Comment: 
                OpenSSL Generated Certificate
            X509v3 Subject Key Identifier: 
                ED:FE:6C:F6:91:1C:F5:96:30:51:6A:3E:A6:CB:C2:74:52:39:C2:9C
            X509v3 Authority Key Identifier: 
                CE:03:2C:59:77:DB:FE:9E:01:8E:BF:40:94:FC:6C:22:77:BD:DB:47
    Signature Algorithm: sha256WithRSAEncryption
    Signature Value:
        6e:45:11:a1:77:dd:5e:7e:cc:1e:37:d8:69:98:52:e3:81:30:
        f5:f1:53:0c:67:7f:42:0d:90:21:9b:2a:e3:93:aa:63:56:15:
        a4:9f:7a:9f:12:69:62:32:fd:7e:44:a2:aa:44:04:ea:4b:80:
        74:45:72:b7:8b:d6:fa:45:48:db:1f:61:bf:f0:d0:ec:76:f5:
        28:00:ff:e4:c4:cc:e5:fc:c7:40:72:e9:62:b9:ca:80:61:25:
        de:62:a8:94:e2:13:fe:22:e7:ea:38:7e:68:bc:56:70:1e:1e:
        d6:3a:50:76:eb:63:3e:80:2a:92:fa:14:aa:99:0b:0e:d4:c3:
        e9:2c:65:88:cb:8a:7e:51:23:a6:79:7f:4d:70:ef:89:d2:63:
        e6:c7:83:88:40:14:e5:ef:78:7d:74:31:30:72:23:27:d7:b2:
        b4:80:61:b1:70:42:d3:24:51:c1:17:5b:81:22:f9:e5:c5:21:
        40:1f:35:00:92:ea:84:c3:cf:f8:eb:13:30:87:33:18:5b:9f:
        0f:2b:01:1e:c8:a6:93:09:e9:fd:0b:12:5f:3b:fd:a2:14:27:
        9d:f0:8e:b6:31:e5:03:ae:96:1a:8d:f6:71:a3:90:ee:34:74:
        c2:de:29:a7:a4:32:d2:d7:5d:0d:4e:5a:9e:8c:d2:d6:54:93:
        89:63:e9:5c
-----BEGIN CERTIFICATE-----
MIID0jCCArqgAwIBAgIBBjANBgkqhkiG9w0BAQsFADBmMQswCQYDVQQGEwJDSDET
MBEGA1UECAwKQmFzZWwtVG93bjEbMBkGA1UECgwSRXJsaW8gTVFUVCBQcm9qZWN0
MRAwDgYDVQQLDAdUZXN0aW5nMRMwEQYDVQQDDApTaWduaW5nIENBMB4XDTI2MDcx
NzE2MDEwMFoXDTMxMDcxNjE2MDEwMFowdjELMAkGA1UEBhMCQ0gxEzARBgNVBAgM
CkJhc2VsLVRvd24xDjAMBgNVBAcMBUJhc2VsMQ8wDQYDVQQKDAZTZXJ2ZXIxEzAR
BgNVBAsMClByb2R1Y3Rpb24xHDAaBgNVBAMME3Rlc3QgY2xpZW50IHJldm9rZWQw
ggEiMA0GCSqGSIb3DQEBAQUAA4IBDwAwggEKAoIBAQCzl24RkScNLna+1o2MKFtJ
oBUKyGW95NR8+tETIC5dBF7EDLsfz9J4Pfm7+DssOYQb7OdEWHryUpNDNlCPqm9G
ZaBwhrDWtVyOxTK5o04Ax+ugcp2Acnf/9W/NlKCk3SDtU2lhfQhxuFffqIxk1TJ1
sR4lxDtCzROKH8Y84TEUsNRDAKM/Opq0F41AZlOAE+EIL6RJ+0dM3mIJ75JO+1rW
g720/f5LbAhiPKVdwGj9Ukzg7TDFGemKIN9XaXNHK52kmKOGIFmVFylUqRqRydzC
rvkCvrdxEHO8qB4oSz2S7s7DQ+HetY3KUGf5BWXY/76u55Lew8NO6LLBldv/bz15
AgMBAAGjezB5MAkGA1UdEwQCMAAwLAYJYIZIAYb4QgENBB8WHU9wZW5TU0wgR2Vu
ZXJhdGVkIENlcnRpZmljYXRlMB0GA1UdDgQWBBTt/mz2kRz1ljBRaj6my8J0UjnC
nDAfBgNVHSMEGDAWgBTOAyxZd9v+ngGOv0CU/Gwid73bRzANBgkqhkiG9w0BAQsF
AAOCAQEAbkURoXfdXn7MHjfYaZhS44Ew9fFTDGd/Qg2QIZsq45OqY1YVpJ96nxJp
YjL9fkSiqkQE6kuAdEVyt4vW+kVI2x9hv/DQ7Hb1KAD/5MTM5fzHQHLpYrnKgGEl
3mKolOIT/iLn6jh+aLxWcB4e1jpQdutjPoAqkvoUqpkLDtTD6SxliMuKflEjpnl/
TXDvidJj5seDiEAU5e94fXQxMHIjJ9eytIBhsXBC0yRRwRdbgSL55cUhQB81AJLq
hMPP+OsTMIczGFufDysBHsimkwnp/QsSXzv9ohQnnfCOtjHlA66WGo32caOQ7jR0
wt4pp6Qy0tddDU5anozS1lSTiWPpXA==
-----END CERTIFICATE-----
