Certificate:
    Data:
        Version: 3 (0x2)
        Serial Number: 4 (0x4)
        Signature Algorithm: sha256WithRSAEncryption
        Issuer: C=CH, ST=Basel-Town, O=Erlio MQTT Project, OU=Testing, CN=Signing CA
        Validity
            Not Before: Jul 17 16:00:59 2026 GMT
            Not After : Jul 16 16:00:59 2031 GMT
        Subject: C=CH, ST=Basel-Town, L=Basel, O=Server, OU=Production, CN=test client
        Subject Public Key Info:
            Public Key Algorithm: rsaEncryption
                Public-Key: (2048 bit)
                Modulus:
                    00:c1:22:6b:5c:9d:c4:c4:bc:b7:af:cf:f2:1b:07:
                    c2:09:e7:26:23:d6:0b:3d:5f:4d:70:63:ae:c4:ad:
                    eb:48:5c:5f:cb:90:de:48:72:6b:0f:e1:9c:43:5f:
                    a8:f5:45:c6:b0:19:26:2e:2f:63:92:f2:be:47:55:
                    e3:ef:5c:f1:80:91:10:79:d0:c0:b9:9b:57:f9:5a:
                    d6:76:98:68:0b:e5:74:2c:92:31:13:c9:81:07:7a:
                    bd:62:b7:1a:65:c8:c6:fa:4a:46:07:8a:eb:ed:9f:
                    06:bf:43:df:53:bc:d1:2a:7a:2e:92:08:8d:bb:23:
                    2f:bf:83:34:2b:b0:1e:78:f4:ee:dc:00:5a:04:9a:
                    7c:9d:dd:36:ba:92:bc:4f:08:7c:24:c9:52:b1:54:
                    1a:23:5d:d4:1f:ba:a8:d4:b1:74:ef:2c:44:40:12:
                    f0:9b:cb:7e:c2:13:c7:4f:87:ff:4a:6a:9b:97:b4:
                    e8:bd:36:f6:73:3d:90:ed:a0:63:5c:bc:8e:27:a5:
                    8e:f1:36:5d:14:9e:6d:54:6d:af:9f:30:85:9a:e3:
                    0d:40:44:f9:8f:94:76:76:e6:74:0a:58:5b:3d:e6:
                    68:2c:fe:68:67:e9:ae:1a:3e:41:24:ff:9d:13:c7:
                    d3:66:89:29:e1:77:ac:ed:cf:3b:9b:90:9a:0b:2b:
                    60:59
                Exponent: 65537 (0x10001)
        X509v3 extensions:
            X509v3 Basic Constraints: 
                CA:FALSE
            Netscape Comment: 
                OpenSSL Generated Certificate
            X509v3 Subject Key Identifier: 
                12:44:97:C5:B7:A2:34:AC:DC:56:57:B8:9F:C5:6A:3F:74:24:4C:08
            X509v3 Authority Key Identifier: 
                CE:03:2C:59:77:DB:FE:9E:01:8E:BF:40:94:FC:6C:22:77:BD:DB:47
    Signature Algorithm: sha256WithRSAEncryption
    Signature Value:
        5c:5e:50:17:7b:0e:7c:2d:12:7f:29:75:7e:26:58:72:cd:7f:
        37:26:72:3d:0f:b2:48:0d:e0:0b:e1:a7:32:4d:4a:94:60:79:
        27:9c:b3:62:8b:7b:d5:17:d5:11:93:bb:04:92:08:39:e8:06:
        2d:eb:c4:77:ce:c5:26:e9:c8:22:ad:ea:b2:d2:65:4c:7d:a1:
        cc:fe:35:8a:74:b2:4a:24:76:83:92:40:6f:62:98:1c:c6:8c:
        38:cc:96:2c:68:4b:27:52:20:ed:52:76:23:02:12:ed:5b:e8:
        ef:74:f2:8d:f9:56:1d:c8:01:25:db:3e:dd:6e:3b:30:23:e0:
        7c:c1:47:1d:f6:79:5f:9f:2c:57:01:52:b6:f6:81:0e:16:a2:
        2e:d0:27:70:75:14:28:2c:e5:e9:34:e7:91:77:00:9b:86:87:
        89:95:fe:87:09:de:e0:55:66:25:33:50:1a:82:a8:d2:0d:83:
        75:74:86:41:c2:58:c0:3e:d6:6a:7e:99:69:3a:42:1b:de:6c:
        e7:f9:9f:29:95:08:05:60:f6:87:82:45:f4:16:db:1c:b9:87:
        51:a2:64:64:ac:61:d5:95:1a:b9:fa:df:f5:7f:3d:75:71:40:
        51:f5:46:94:1c:a2:96:b6:06:48:42:61:27:06:c4:ac:42:c0:
        64:2d:96:df
-----BEGIN CERTIFICATE-----
MIIDyjCCArKgAwIBAgIBBDANBgkqhkiG9w0BAQsFADBmMQswCQYDVQQGEwJDSDET
MBEGA1UECAwKQmFzZWwtVG93bjEbMBkGA1UECgwSRXJsaW8gTVFUVCBQcm9qZWN0
MRAwDgYDVQQLDAdUZXN0aW5nMRMwEQYDVQQDDApTaWduaW5nIENBMB4XDTI2MDcx
NzE2MDA1OVoXDTMxMDcxNjE2MDA1OVowbjELMAkGA1UEBhMCQ0gxEzARBgNVBAgM
CkJhc2VsLVRvd24xDjAMBgNVBAcMBUJhc2VsMQ8wDQYDVQQKDAZTZXJ2ZXIxEzAR
BgNVBAsMClByb2R1Y3Rpb24xFDASBgNVBAMMC3Rlc3QgY2xpZW50MIIBIjANBgkq
hkiG9w0BAQEFAAOCAQ8AMIIBCgKCAQEAwSJrXJ3ExLy3r8/yGwfCCecmI9YLPV9N
cGOuxK3rSFxfy5DeSHJrD+GcQ1+o9UXGsBkmLi9jkvK+R1Xj71zxgJEQedDAuZtX
+VrWdphoC+V0LJIxE8mBB3q9YrcaZcjG+kpGB4rr7Z8Gv0PfU7zRKnoukgiNuyMv
v4M0K7AeePTu3ABaBJp8nd02upK8Twh8JMlSsVQaI13UH7qo1LF07yxEQBLwm8t+
whPHT4f/Smqbl7TovTb2cz2Q7aBjXLyOJ6WO8TZdFJ5tVG2vnzCFmuMNQET5j5R2
duZ0ClhbPeZoLP5oZ+muGj5BJP+dE8fTZokp4Xes7c87m5CaCytgWQIDAQABo3sw
eTAJBgNVHRMEAjAAMCwGCWCGSAGG+EIBDQQfFh1PcGVuU1NMIEdlbmVyYXRlZCBD
ZXJ0aWZpY2F0ZTAdBgNVHQ4EFgQUEkSXxbeiNKzcVle4n8VqP3QkTAgwHwYDVR0j
BBgwFoAUzgMsWXfb/p4Bjr9AlPxsIne920cwDQYJKoZIhvcNAQELBQADggEBAFxe
UBd7DnwtEn8pdX4mWHLNfzcmcj0PskgN4AvhpzJNSpRgeSecs2KLe9UX1RGTuwSS
CDnoBi3rxHfOxSbpyCKt6rLSZUx9ocz+NYp0skokdoOSQG9imBzGjDjMlixoSydS
IO1SdiMCEu1b6O908o35Vh3IASXbPt1uOzAj4HzBRx32eV+fLFcBUrb2gQ4Woi7Q
J3B1FCgs5ek055F3AJuGh4mV/ocJ3uBVZiUzUBqCqNINg3V0hkHCWMA+1mp+mWk6
QhvebOf5nymVCAVg9oeCRfQW2xy5h1GiZGSsYdWVGrn63/V/PXVxQFH1RpQcopa2
BkhCYScGxKxCwGQtlt8=
-----END CERTIFICATE-----
