Certificate:
    Data:
        Version: 3 (0x2)
        Serial Number: 5 (0x5)
        Signature Algorithm: sha256WithRSAEncryption
        Issuer: C=CH, ST=Basel-Town, O=Erlio MQTT Project, OU=Testing, CN=Signing CA
        Validity
            Not Before: Apr 11 06:54:28 2024 GMT
            Not After : Apr 10 06:54:28 2029 GMT
        Subject: C=CH, ST=Basel-Town, L=Basel, O=Server, OU=Production, CN=test client revoked
        Subject Public Key Info:
            Public Key Algorithm: rsaEncryption
                Public-Key: (2048 bit)
                Modulus:
                    00:9b:1e:63:19:70:b4:49:bb:be:66:67:cd:63:d1:
                    df:f3:59:e9:1d:32:a0:d7:46:98:62:62:a0:b7:40:
                    c3:86:89:17:cf:e7:68:2b:ed:9e:2e:8d:78:79:df:
                    7c:a2:5a:38:b6:20:73:4b:c2:3b:3e:b2:35:bc:b0:
                    43:e6:68:76:be:d7:e9:30:0b:09:fb:e0:7a:20:5b:
                    a6:e5:d1:fc:0a:68:b1:89:ca:e6:07:a9:95:04:87:
                    be:01:3c:6f:4f:ef:ba:0c:66:43:a3:c6:73:e8:c9:
                    28:34:fd:87:e5:3a:31:6d:d9:20:85:32:cb:24:d8:
                    5d:32:80:4a:66:7b:46:e7:33:0c:c0:49:35:11:db:
                    15:42:08:d6:92:bb:b5:5d:d3:eb:dc:08:44:d3:89:
                    00:b1:72:7a:01:9d:8b:c8:c7:59:41:4d:6c:96:de:
                    2d:3c:e7:7e:d1:ce:37:26:40:18:c4:26:8a:b9:f2:
                    7f:05:b6:09:c1:d3:a3:97:0b:32:17:5a:b7:4b:87:
                    94:44:fd:a6:56:61:bc:b4:3c:84:bd:0a:82:9b:c5:
                    42:12:98:9d:73:54:e5:88:3f:ca:10:87:ef:f0:49:
                    1f:c0:be:67:a3:72:eb:5a:87:5f:2c:b1:d7:46:e7:
                    27:18:bd:d7:ad:9c:d1:cb:a8:86:2f:5a:bb:1d:27:
                    08:2b
                Exponent: 65537 (0x10001)
        X509v3 extensions:
            X509v3 Basic Constraints: 
                CA:FALSE
            Netscape Comment: 
                OpenSSL Generated Certificate
            X509v3 Subject Key Identifier: 
                6A:42:25:E2:B8:FC:70:3B:E4:9A:FF:EB:CE:CB:94:08:DC:AE:42:C1
            X509v3 Authority Key Identifier: 
                60:0D:CB:87:6C:97:8D:46:84:11:8D:75:31:03:A4:69:63:69:96:CF
    Signature Algorithm: sha256WithRSAEncryption
    Signature Value:
        6c:f3:4c:f1:67:3d:db:69:48:88:46:d9:c8:ee:2d:9f:3f:71:
        bf:3a:5f:5a:9d:8d:42:99:9e:f3:35:95:fc:02:f4:31:41:72:
        64:bd:4a:08:61:55:bd:04:17:b7:fb:65:b0:9c:94:13:5e:de:
        7c:f2:2a:8f:48:66:20:a5:b2:47:71:1e:7d:b2:6d:fc:a1:4c:
        96:8c:16:0d:65:28:70:35:6f:5f:1d:4e:27:3c:96:ee:5b:69:
        b7:93:4e:86:d8:fe:01:73:9e:8d:bf:cb:d2:ab:3f:90:17:8d:
        72:b3:08:48:84:fd:ce:9a:c3:5a:29:3e:46:b3:e8:79:ee:2c:
        55:a5:df:66:03:21:37:15:2f:ea:ab:a2:51:8f:56:8d:ad:74:
        09:94:6f:2c:7d:d7:c2:d7:68:ad:96:be:19:b9:37:6b:b8:7f:
        7c:15:eb:46:18:69:72:4b:bf:0d:f3:c2:aa:a2:30:f0:2d:9d:
        77:92:bf:57:1e:52:1e:99:66:85:64:47:56:4e:c4:30:76:54:
        70:c9:91:cb:32:7b:ea:ee:c3:30:a0:fa:f8:b4:bf:b9:e5:c8:
        2a:fc:b6:88:4b:93:85:70:61:2b:b8:6e:34:28:ec:1b:6a:81:
        a0:44:3a:97:16:da:9a:6b:8b:e2:55:44:83:af:49:3a:35:4d:
        38:0f:3e:c4
-----BEGIN CERTIFICATE-----
MIID0jCCArqgAwIBAgIBBTANBgkqhkiG9w0BAQsFADBmMQswCQYDVQQGEwJDSDET
MBEGA1UECAwKQmFzZWwtVG93bjEbMBkGA1UECgwSRXJsaW8gTVFUVCBQcm9qZWN0
MRAwDgYDVQQLDAdUZXN0aW5nMRMwEQYDVQQDDApTaWduaW5nIENBMB4XDTI0MDQx
MTA2NTQyOFoXDTI5MDQxMDA2NTQyOFowdjELMAkGA1UEBhMCQ0gxEzARBgNVBAgM
CkJhc2VsLVRvd24xDjAMBgNVBAcMBUJhc2VsMQ8wDQYDVQQKDAZTZXJ2ZXIxEzAR
BgNVBAsMClByb2R1Y3Rpb24xHDAaBgNVBAMME3Rlc3QgY2xpZW50IHJldm9rZWQw
ggEiMA0GCSqGSIb3DQEBAQUAA4IBDwAwggEKAoIBAQCbHmMZcLRJu75mZ81j0d/z
WekdMqDXRphiYqC3QMOGiRfP52gr7Z4ujXh533yiWji2IHNLwjs+sjW8sEPmaHa+
1+kwCwn74HogW6bl0fwKaLGJyuYHqZUEh74BPG9P77oMZkOjxnPoySg0/YflOjFt
2SCFMssk2F0ygEpme0bnMwzASTUR2xVCCNaSu7Vd0+vcCETTiQCxcnoBnYvIx1lB
TWyW3i08537RzjcmQBjEJoq58n8FtgnB06OXCzIXWrdLh5RE/aZWYby0PIS9CoKb
xUISmJ1zVOWIP8oQh+/wSR/Avmejcutah18ssddG5ycYvdetnNHLqIYvWrsdJwgr
AgMBAAGjezB5MAkGA1UdEwQCMAAwLAYJYIZIAYb4QgENBB8WHU9wZW5TU0wgR2Vu
ZXJhdGVkIENlcnRpZmljYXRlMB0GA1UdDgQWBBRqQiXiuPxwO+Sa/+vOy5QI3K5C
wTAfBgNVHSMEGDAWgBRgDcuHbJeNRoQRjXUxA6RpY2mWzzANBgkqhkiG9w0BAQsF
AAOCAQEAbPNM8Wc922lIiEbZyO4tnz9xvzpfWp2NQpme8zWV/AL0MUFyZL1KCGFV
vQQXt/tlsJyUE17efPIqj0hmIKWyR3EefbJt/KFMlowWDWUocDVvXx1OJzyW7ltp
t5NOhtj+AXOejb/L0qs/kBeNcrMISIT9zprDWik+RrPoee4sVaXfZgMhNxUv6qui
UY9Wja10CZRvLH3XwtdorZa+Gbk3a7h/fBXrRhhpcku/DfPCqqIw8C2dd5K/Vx5S
HplmhWRHVk7EMHZUcMmRyzJ76u7DMKD6+LS/ueXIKvy2iEuThXBhK7huNCjsG2qB
oEQ6lxbammuL4lVEg69JOjVNOA8+xA==
-----END CERTIFICATE-----
