Certificate:
    Data:
        Version: 3 (0x2)
        Serial Number: 2 (0x2)
    Signature Algorithm: sha256WithRSAEncryption
        Issuer: C=CH, ST=Basel-Town, O=Erlio MQTT Project, OU=Testing, CN=Signing CA
        Validity
            Not Before: Sep 25 20:51:17 2014 GMT
            Not After : Sep 24 20:51:17 2019 GMT
        Subject: C=CH, ST=Basel-Town, L=Basel, O=Server, OU=Production, CN=test client
        Subject Public Key Info:
            Public Key Algorithm: rsaEncryption
                Public-Key: (1024 bit)
                Modulus:
                    00:b6:99:62:3b:5e:9a:87:2e:61:00:3a:67:2e:c1:
                    9d:36:56:89:b1:ad:f7:78:01:ed:d1:ca:e8:73:fc:
                    8a:93:06:be:ac:12:1e:70:fc:17:2c:28:d8:3a:b5:
                    5f:f5:f3:09:7c:b6:b4:e7:aa:d0:3a:b9:e6:cd:15:
                    01:ae:38:a9:37:01:53:2f:90:d0:4a:c3:7b:78:5e:
                    74:ce:8d:a8:92:9b:b3:87:15:69:35:01:ff:03:96:
                    91:82:29:d4:8f:25:97:5a:4c:f3:1b:89:dc:8e:c1:
                    de:9c:38:be:e5:d8:47:25:bb:7b:e3:cc:85:e8:c5:
                    a2:7e:3d:ee:c8:be:13:5f:47
                Exponent: 65537 (0x10001)
        X509v3 extensions:
            X509v3 Basic Constraints: 
                CA:FALSE
            Netscape Comment: 
                OpenSSL Generated Certificate
            X509v3 Subject Key Identifier: 
                AE:32:3C:A9:84:89:45:48:40:D1:74:78:F6:75:38:43:9E:32:1E:42
            X509v3 Authority Key Identifier: 
                keyid:29:3D:44:16:CF:33:33:CD:2D:60:DF:4D:A7:17:D0:0B:D4:E1:23:C0

    Signature Algorithm: sha256WithRSAEncryption
         78:d8:11:d6:4a:bd:b6:31:78:cb:01:2a:13:77:ef:c5:b7:9f:
         f1:b4:19:02:6e:ad:5b:3d:60:3b:76:d8:ef:4d:32:ae:07:3e:
         61:a0:c5:05:df:9c:eb:78:0e:67:8f:39:24:20:e8:91:98:23:
         3b:39:0f:e4:7c:35:70:34:cc:64:3f:73:71:8d:d7:59:03:9c:
         79:2e:32:27:16:8b:90:6b:f6:88:b1:bd:0d:fc:8e:5a:15:95:
         20:7c:eb:c5:b8:33:f8:aa:e8:dd:90:57:c2:32:de:ed:da:da:
         8b:6c:38:bc:33:88:df:5c:38:e5:8f:0f:fc:f0:e4:b9:2f:3c:
         09:6b
-----BEGIN CERTIFICATE-----
MIICxTCCAi6gAwIBAgIBAjANBgkqhkiG9w0BAQsFADBmMQswCQYDVQQGEwJDSDET
MBEGA1UECAwKQmFzZWwtVG93bjEbMBkGA1UECgwSRXJsaW8gTVFUVCBQcm9qZWN0
MRAwDgYDVQQLDAdUZXN0aW5nMRMwEQYDVQQDDApTaWduaW5nIENBMB4XDTE0MDky
NTIwNTExN1oXDTE5MDkyNDIwNTExN1owbjELMAkGA1UEBhMCQ0gxEzARBgNVBAgM
CkJhc2VsLVRvd24xDjAMBgNVBAcMBUJhc2VsMQ8wDQYDVQQKDAZTZXJ2ZXIxEzAR
BgNVBAsMClByb2R1Y3Rpb24xFDASBgNVBAMMC3Rlc3QgY2xpZW50MIGfMA0GCSqG
SIb3DQEBAQUAA4GNADCBiQKBgQC2mWI7XpqHLmEAOmcuwZ02Vomxrfd4Ae3Ryuhz
/IqTBr6sEh5w/BcsKNg6tV/18wl8trTnqtA6uebNFQGuOKk3AVMvkNBKw3t4XnTO
jaiSm7OHFWk1Af8DlpGCKdSPJZdaTPMbidyOwd6cOL7l2Eclu3vjzIXoxaJ+Pe7I
vhNfRwIDAQABo3sweTAJBgNVHRMEAjAAMCwGCWCGSAGG+EIBDQQfFh1PcGVuU1NM
IEdlbmVyYXRlZCBDZXJ0aWZpY2F0ZTAdBgNVHQ4EFgQUrjI8qYSJRUhA0XR49nU4
Q54yHkIwHwYDVR0jBBgwFoAUKT1EFs8zM80tYN9NpxfQC9ThI8AwDQYJKoZIhvcN
AQELBQADgYEAeNgR1kq9tjF4ywEqE3fvxbef8bQZAm6tWz1gO3bY700yrgc+YaDF
Bd+c63gOZ485JCDokZgjOzkP5Hw1cDTMZD9zcY3XWQOceS4yJxaLkGv2iLG9DfyO
WhWVIHzrxbgz+Kro3ZBXwjLe7drai2w4vDOI31w45Y8P/PDkuS88CWs=
-----END CERTIFICATE-----
