Certificate:
    Data:
        Version: 3 (0x2)
        Serial Number: 4 (0x4)
        Signature Algorithm: sha256WithRSAEncryption
        Issuer: C=CH, ST=Basel-Town, O=Erlio MQTT Project, OU=Testing, CN=Signing CA
        Validity
            Not Before: Aug 20 00:00:00 2012 GMT
            Not After : Aug 21 00:00:00 2012 GMT
        Subject: C=CH, ST=Basel-Town, L=Basel, O=Server, OU=Production, CN=test client expired
        Subject Public Key Info:
            Public Key Algorithm: rsaEncryption
                Public-Key: (2048 bit)
                Modulus:
                    00:c9:60:50:58:ac:38:f8:ca:a9:81:30:cf:2d:ee:
                    28:75:3a:53:de:31:a3:89:c1:55:97:69:71:62:b9:
                    f0:0c:94:52:bf:e0:5a:42:ec:74:a2:4e:58:08:2c:
                    22:82:9e:c0:d1:35:74:c5:70:6e:c5:04:7f:65:e9:
                    0e:17:a0:dd:76:87:ac:8f:7b:e8:7b:d4:f7:c5:27:
                    ce:15:b1:20:b1:c7:7b:37:f4:36:b2:83:4b:f9:c3:
                    f0:3d:7b:8b:f9:fe:87:38:b3:e8:9d:27:81:86:aa:
                    5c:fd:fb:45:a5:e1:4d:92:39:55:0e:53:be:00:bd:
                    77:41:6c:8c:c0:98:6d:7e:5f:ee:26:80:9f:6d:20:
                    ab:c8:d1:a8:c0:e0:11:f8:aa:8b:bf:4e:9b:24:d0:
                    3e:eb:02:30:18:17:ce:31:8f:7c:3b:6a:bc:ab:69:
                    fb:e2:a9:a3:ea:05:2c:d5:d3:0a:30:77:a4:6d:89:
                    48:18:f2:9d:bd:52:7b:d3:68:52:3c:84:4c:aa:e7:
                    c7:6f:fb:2d:aa:20:ac:db:39:09:2b:8a:58:24:60:
                    e3:be:1a:ba:5f:5a:18:cf:76:f2:b8:ca:88:09:39:
                    ce:c9:75:00:3c:7a:41:63:7d:92:e7:b6:0c:12:f6:
                    d6:2b:d3:6d:a6:cc:5a:e6:a0:cc:c8:7e:9f:a4:37:
                    99:1d
                Exponent: 65537 (0x10001)
        X509v3 extensions:
            X509v3 Basic Constraints: 
                CA:FALSE
            Netscape Comment: 
                OpenSSL Generated Certificate
            X509v3 Subject Key Identifier: 
                9E:11:FD:B9:95:85:7F:68:16:76:63:3E:78:9B:F5:C5:26:08:44:7C
            X509v3 Authority Key Identifier: 
                60:0D:CB:87:6C:97:8D:46:84:11:8D:75:31:03:A4:69:63:69:96:CF
    Signature Algorithm: sha256WithRSAEncryption
    Signature Value:
        5c:d0:9e:b8:9d:c1:fd:af:38:26:62:92:13:6b:ff:86:b8:63:
        9b:4d:47:51:25:41:38:85:84:01:0d:76:39:e6:9f:c7:0a:e9:
        c8:e6:4d:82:a8:01:99:3b:78:2a:85:54:d8:13:c7:32:c1:41:
        fe:2e:06:da:71:38:98:33:ff:d7:3a:ae:a2:82:ca:b5:6c:f0:
        aa:bd:84:8b:f6:75:65:c6:93:4c:e1:b8:4b:fe:99:d7:d0:d9:
        30:43:9d:7c:e0:66:15:06:a7:da:87:ba:e0:75:93:c5:ce:a6:
        c4:84:59:81:2f:31:ac:a4:ef:04:ec:16:0c:aa:6e:cb:07:64:
        e1:65:06:38:cd:50:fe:90:12:8b:48:3c:6a:5c:0c:e9:83:6d:
        c3:77:c1:3c:1b:9d:82:e3:29:1b:f4:bd:92:e6:d3:b3:ae:8e:
        15:18:cf:17:ee:e2:4c:1b:d7:63:ec:0c:34:08:bd:d3:28:21:
        bf:bc:14:cc:df:52:7e:a4:e8:0e:48:16:94:23:47:f2:8a:ec:
        4e:32:4a:19:78:5a:2e:e9:03:1a:5a:85:83:f0:cd:fd:d6:4b:
        6e:3c:eb:bf:2c:d0:53:a1:93:64:17:67:09:d6:5a:d9:eb:b4:
        e3:f8:f6:e4:b0:dd:79:c8:7e:da:a9:dc:e3:a6:ab:c4:64:1f:
        10:43:ac:81
-----BEGIN CERTIFICATE-----
MIID0jCCArqgAwIBAgIBBDANBgkqhkiG9w0BAQsFADBmMQswCQYDVQQGEwJDSDET
MBEGA1UECAwKQmFzZWwtVG93bjEbMBkGA1UECgwSRXJsaW8gTVFUVCBQcm9qZWN0
MRAwDgYDVQQLDAdUZXN0aW5nMRMwEQYDVQQDDApTaWduaW5nIENBMB4XDTEyMDgy
MDAwMDAwMFoXDTEyMDgyMTAwMDAwMFowdjELMAkGA1UEBhMCQ0gxEzARBgNVBAgM
CkJhc2VsLVRvd24xDjAMBgNVBAcMBUJhc2VsMQ8wDQYDVQQKDAZTZXJ2ZXIxEzAR
BgNVBAsMClByb2R1Y3Rpb24xHDAaBgNVBAMME3Rlc3QgY2xpZW50IGV4cGlyZWQw
ggEiMA0GCSqGSIb3DQEBAQUAA4IBDwAwggEKAoIBAQDJYFBYrDj4yqmBMM8t7ih1
OlPeMaOJwVWXaXFiufAMlFK/4FpC7HSiTlgILCKCnsDRNXTFcG7FBH9l6Q4XoN12
h6yPe+h71PfFJ84VsSCxx3s39Dayg0v5w/A9e4v5/oc4s+idJ4GGqlz9+0Wl4U2S
OVUOU74AvXdBbIzAmG1+X+4mgJ9tIKvI0ajA4BH4qou/Tpsk0D7rAjAYF84xj3w7
aryrafviqaPqBSzV0wowd6RtiUgY8p29UnvTaFI8hEyq58dv+y2qIKzbOQkrilgk
YOO+GrpfWhjPdvK4yogJOc7JdQA8ekFjfZLntgwS9tYr022mzFrmoMzIfp+kN5kd
AgMBAAGjezB5MAkGA1UdEwQCMAAwLAYJYIZIAYb4QgENBB8WHU9wZW5TU0wgR2Vu
ZXJhdGVkIENlcnRpZmljYXRlMB0GA1UdDgQWBBSeEf25lYV/aBZ2Yz54m/XFJghE
fDAfBgNVHSMEGDAWgBRgDcuHbJeNRoQRjXUxA6RpY2mWzzANBgkqhkiG9w0BAQsF
AAOCAQEAXNCeuJ3B/a84JmKSE2v/hrhjm01HUSVBOIWEAQ12OeafxwrpyOZNgqgB
mTt4KoVU2BPHMsFB/i4G2nE4mDP/1zquooLKtWzwqr2Ei/Z1ZcaTTOG4S/6Z19DZ
MEOdfOBmFQan2oe64HWTxc6mxIRZgS8xrKTvBOwWDKpuywdk4WUGOM1Q/pASi0g8
alwM6YNtw3fBPBudguMpG/S9kubTs66OFRjPF+7iTBvXY+wMNAi90yghv7wUzN9S
fqToDkgWlCNH8orsTjJKGXhaLukDGlqFg/DN/dZLbjzrvyzQU6GTZBdnCdZa2eu0
4/j25LDdech+2qnc46arxGQfEEOsgQ==
-----END CERTIFICATE-----
