Certificate:
    Data:
        Version: 3 (0x2)
        Serial Number: 1 (0x1)
        Signature Algorithm: sha256WithRSAEncryption
        Issuer: C=CH, ST=Basel-Town, O=Erlio MQTT Project, OU=Testing, CN=Signing CA
        Validity
            Not Before: Apr 11 06:54:09 2024 GMT
            Not After : Apr 10 06:54:09 2029 GMT
        Subject: C=CH, ST=Basel-Town, L=Basel, O=Server, OU=Production, CN=localhost
        Subject Public Key Info:
            Public Key Algorithm: rsaEncryption
                Public-Key: (2048 bit)
                Modulus:
                    00:b3:7a:71:4f:ed:4e:8b:01:20:38:96:a8:d0:b7:
                    ac:6f:d2:49:f2:8e:16:9b:83:3f:a3:a7:64:cb:4b:
                    ec:51:9b:99:2f:25:bd:e3:5d:3b:cd:4f:e2:fe:fb:
                    e0:c7:1a:db:fa:ae:ce:80:8f:0a:8a:93:d8:7a:b4:
                    26:42:ab:55:6d:79:d0:96:64:2c:5d:05:db:67:f9:
                    2e:bf:a5:1a:70:1d:17:1f:0a:0b:ac:36:7f:75:d7:
                    b5:3d:c0:c6:98:91:a3:a4:78:09:f7:11:84:55:cb:
                    91:ac:98:ae:09:cb:6c:82:c7:e3:6d:3d:3a:5d:64:
                    e1:d7:19:54:61:0b:b5:6d:0f:3a:bf:f8:00:b0:84:
                    cf:c8:3f:6c:bb:c9:75:7f:c4:31:04:a7:7f:e4:22:
                    a8:50:8c:86:a7:df:68:c7:d1:b1:ae:56:cb:07:ba:
                    59:a6:69:8d:e4:a8:a3:b5:38:7a:66:b2:0d:3f:94:
                    a8:c0:13:da:cb:8d:75:a8:f1:de:41:5e:ff:cf:ea:
                    df:60:5b:cb:b8:1c:8e:24:40:60:78:6e:9e:31:ef:
                    aa:ba:39:74:0a:53:d1:f3:60:c5:9c:0d:4c:3c:22:
                    e9:19:a6:eb:c4:c1:a8:74:d7:18:b4:28:2b:da:6d:
                    6d:3a:d7:94:b6:6f:b4:09:2a:65:eb:8a:9c:db:71:
                    89:1d
                Exponent: 65537 (0x10001)
        X509v3 extensions:
            X509v3 Basic Constraints: 
                CA:FALSE
            Netscape Comment: 
                OpenSSL Generated Certificate
            X509v3 Subject Key Identifier: 
                F2:15:F8:97:C1:87:4E:A8:84:CB:5E:93:9B:AA:E7:92:D6:00:45:A8
            X509v3 Authority Key Identifier: 
                60:0D:CB:87:6C:97:8D:46:84:11:8D:75:31:03:A4:69:63:69:96:CF
    Signature Algorithm: sha256WithRSAEncryption
    Signature Value:
        57:69:f5:c7:ee:fd:d4:4e:cb:34:21:68:0c:0a:70:b6:f8:81:
        7b:4b:c0:07:e8:c6:1d:3d:71:46:15:b7:28:83:30:e1:6d:ac:
        db:f7:09:d1:e8:20:64:e6:7a:ae:e0:2a:b6:9d:4a:48:21:26:
        38:3b:fa:46:37:f6:31:b6:04:ea:41:89:f7:e5:8b:0d:d8:f7:
        a7:08:c3:74:ab:f9:64:c4:66:bb:20:c6:c1:46:51:d6:91:a0:
        91:c2:b8:78:d0:a0:6d:6a:60:2c:9c:69:0a:bf:a9:20:f8:f6:
        c3:6e:a9:88:f2:9e:4e:7c:5a:14:5f:8e:83:e0:5e:5a:9f:c8:
        ae:91:3d:cd:0a:bc:ca:b6:d7:08:69:0e:ce:a0:95:a3:ed:d0:
        60:e0:93:70:a7:12:cf:99:b2:20:c8:91:51:09:0a:49:d4:f8:
        40:4a:1e:26:1f:e6:85:83:c3:cd:86:03:9c:34:e1:d9:d7:55:
        69:c3:94:78:7c:c9:ea:5b:fe:c4:20:85:4e:89:0c:aa:cb:b8:
        c9:74:40:0d:c9:98:47:d8:f9:3a:5b:a5:3d:5a:8e:34:c6:74:
        00:45:c8:c2:d2:6d:69:67:94:4e:22:5b:76:20:08:b2:40:e7:
        31:fc:1e:9c:17:5f:fd:d3:a9:24:7c:30:6a:f4:89:c7:c5:ae:
        31:b0:ec:7c
-----BEGIN CERTIFICATE-----
MIIDyDCCArCgAwIBAgIBATANBgkqhkiG9w0BAQsFADBmMQswCQYDVQQGEwJDSDET
MBEGA1UECAwKQmFzZWwtVG93bjEbMBkGA1UECgwSRXJsaW8gTVFUVCBQcm9qZWN0
MRAwDgYDVQQLDAdUZXN0aW5nMRMwEQYDVQQDDApTaWduaW5nIENBMB4XDTI0MDQx
MTA2NTQwOVoXDTI5MDQxMDA2NTQwOVowbDELMAkGA1UEBhMCQ0gxEzARBgNVBAgM
CkJhc2VsLVRvd24xDjAMBgNVBAcMBUJhc2VsMQ8wDQYDVQQKDAZTZXJ2ZXIxEzAR
BgNVBAsMClByb2R1Y3Rpb24xEjAQBgNVBAMMCWxvY2FsaG9zdDCCASIwDQYJKoZI
hvcNAQEBBQADggEPADCCAQoCggEBALN6cU/tTosBIDiWqNC3rG/SSfKOFpuDP6On
ZMtL7FGbmS8lveNdO81P4v774Mca2/quzoCPCoqT2Hq0JkKrVW150JZkLF0F22f5
Lr+lGnAdFx8KC6w2f3XXtT3AxpiRo6R4CfcRhFXLkayYrgnLbILH4209Ol1k4dcZ
VGELtW0POr/4ALCEz8g/bLvJdX/EMQSnf+QiqFCMhqffaMfRsa5Wywe6WaZpjeSo
o7U4emayDT+UqMAT2suNdajx3kFe/8/q32Bby7gcjiRAYHhunjHvqro5dApT0fNg
xZwNTDwi6Rmm68TBqHTXGLQoK9ptbTrXlLZvtAkqZeuKnNtxiR0CAwEAAaN7MHkw
CQYDVR0TBAIwADAsBglghkgBhvhCAQ0EHxYdT3BlblNTTCBHZW5lcmF0ZWQgQ2Vy
dGlmaWNhdGUwHQYDVR0OBBYEFPIV+JfBh06ohMtek5uq55LWAEWoMB8GA1UdIwQY
MBaAFGANy4dsl41GhBGNdTEDpGljaZbPMA0GCSqGSIb3DQEBCwUAA4IBAQBXafXH
7v3UTss0IWgMCnC2+IF7S8AH6MYdPXFGFbcogzDhbazb9wnR6CBk5nqu4Cq2nUpI
ISY4O/pGN/YxtgTqQYn35YsN2PenCMN0q/lkxGa7IMbBRlHWkaCRwrh40KBtamAs
nGkKv6kg+PbDbqmI8p5OfFoUX46D4F5an8iukT3NCrzKttcIaQ7OoJWj7dBg4JNw
pxLPmbIgyJFRCQpJ1PhASh4mH+aFg8PNhgOcNOHZ11Vpw5R4fMnqW/7EIIVOiQyq
y7jJdEANyZhH2Pk6W6U9Wo40xnQARcjC0m1pZ5ROIlt2IAiyQOcx/B6cF1/906kk
fDBq9InHxa4xsOx8
-----END CERTIFICATE-----
