Certificate:
    Data:
        Version: 3 (0x2)
        Serial Number: 2 (0x2)
    Signature Algorithm: sha256WithRSAEncryption
        Issuer: C=CH, ST=Basel-Town, L=Basel, O=Erlio MQTT Project, OU=Testing, CN=Root CA
        Validity
            Not Before: Sep 25 20:51:11 2014 GMT
            Not After : Sep 24 20:51:11 2019 GMT
        Subject: C=CH, ST=Basel-Town, O=Erlio MQTT Project, OU=Testing, CN=Alternative Signing CA
        Subject Public Key Info:
            Public Key Algorithm: rsaEncryption
                Public-Key: (1024 bit)
                Modulus:
                    00:bf:91:ae:e2:99:3a:3d:1b:55:cf:f5:3c:f9:69:
                    4f:c2:40:99:cf:59:55:56:d5:2d:97:f2:af:a0:49:
                    e5:1c:1a:ac:7f:1e:84:87:7c:c4:2d:99:3e:cf:16:
                    39:86:e1:02:a2:dd:f5:78:6b:1a:9d:4e:24:04:a4:
                    9b:ae:65:5b:7e:d6:09:4d:b0:6e:aa:3a:b0:48:61:
                    01:be:62:a6:68:23:e7:76:d6:7a:d0:47:64:3c:17:
                    1a:55:94:15:c5:6f:e8:d1:f2:9f:b0:59:ae:0f:22:
                    41:8f:84:d3:d0:5c:eb:37:ca:26:67:7d:ef:c9:61:
                    88:d4:b7:f4:e2:67:42:1a:e3
                Exponent: 65537 (0x10001)
        X509v3 extensions:
            X509v3 Subject Key Identifier: 
                1B:D2:CB:1A:84:65:36:60:C7:CA:0B:1E:B8:10:BE:C9:E3:0C:CD:31
            X509v3 Authority Key Identifier: 
                keyid:4F:FD:C1:5F:09:C4:A7:A6:DF:FF:98:95:A8:30:33:00:41:3D:45:7B

            X509v3 Basic Constraints: 
                CA:TRUE
    Signature Algorithm: sha256WithRSAEncryption
         69:81:92:ac:42:85:b8:81:c6:dc:3e:bd:fd:16:26:ff:b1:1a:
         52:a5:6e:8f:eb:ed:9b:1b:38:8c:fb:c8:ce:cd:80:e0:a5:75:
         1a:f0:c1:91:71:ea:49:c1:2a:1a:54:dd:16:85:b0:94:64:2e:
         b6:2e:69:0e:42:b0:cc:ff:66:e9:3e:7f:51:ca:51:f3:78:8e:
         9f:27:02:c5:4f:1b:55:18:8d:97:b1:11:4c:b2:f4:a3:4e:1f:
         6d:fc:74:cf:2f:c3:16:d9:7f:ea:99:1c:1f:36:b2:5f:02:10:
         23:72:c8:7b:c2:54:46:82:6a:02:64:15:a6:c1:ae:b5:69:01:
         08:59
-----BEGIN CERTIFICATE-----
MIICqzCCAhSgAwIBAgIBAjANBgkqhkiG9w0BAQsFADBzMQswCQYDVQQGEwJDSDET
MBEGA1UECAwKQmFzZWwtVG93bjEOMAwGA1UEBwwFQmFzZWwxGzAZBgNVBAoMEkVy
bGlvIE1RVFQgUHJvamVjdDEQMA4GA1UECwwHVGVzdGluZzEQMA4GA1UEAwwHUm9v
dCBDQTAeFw0xNDA5MjUyMDUxMTFaFw0xOTA5MjQyMDUxMTFaMHIxCzAJBgNVBAYT
AkNIMRMwEQYDVQQIDApCYXNlbC1Ub3duMRswGQYDVQQKDBJFcmxpbyBNUVRUIFBy
b2plY3QxEDAOBgNVBAsMB1Rlc3RpbmcxHzAdBgNVBAMMFkFsdGVybmF0aXZlIFNp
Z25pbmcgQ0EwgZ8wDQYJKoZIhvcNAQEBBQADgY0AMIGJAoGBAL+RruKZOj0bVc/1
PPlpT8JAmc9ZVVbVLZfyr6BJ5RwarH8ehId8xC2ZPs8WOYbhAqLd9XhrGp1OJASk
m65lW37WCU2wbqo6sEhhAb5ipmgj53bWetBHZDwXGlWUFcVv6NHyn7BZrg8iQY+E
09Bc6zfKJmd978lhiNS39OJnQhrjAgMBAAGjUDBOMB0GA1UdDgQWBBQb0ssahGU2
YMfKCx64EL7J4wzNMTAfBgNVHSMEGDAWgBRP/cFfCcSnpt//mJWoMDMAQT1FezAM
BgNVHRMEBTADAQH/MA0GCSqGSIb3DQEBCwUAA4GBAGmBkqxChbiBxtw+vf0WJv+x
GlKlbo/r7ZsbOIz7yM7NgOCldRrwwZFx6knBKhpU3RaFsJRkLrYuaQ5CsMz/Zuk+
f1HKUfN4jp8nAsVPG1UYjZexEUyy9KNOH238dM8vwxbZf+qZHB82sl8CECNyyHvC
VEaCagJkFabBrrVpAQhZ
-----END CERTIFICATE-----
