Certificate:
    Data:
        Version: 3 (0x2)
        Serial Number: 2 (0x2)
        Signature Algorithm: sha256WithRSAEncryption
        Issuer: C=CH, ST=Basel-Town, L=Basel, O=Erlio MQTT Project, OU=Testing, CN=Root CA
        Validity
            Not Before: Apr 11 06:54:02 2024 GMT
            Not After : Apr 10 06:54:02 2029 GMT
        Subject: C=CH, ST=Basel-Town, O=Erlio MQTT Project, OU=Testing, CN=Alternative Signing CA
        Subject Public Key Info:
            Public Key Algorithm: rsaEncryption
                Public-Key: (2048 bit)
                Modulus:
                    00:e7:9a:c4:a6:9a:af:4e:99:45:d9:d2:90:d2:a3:
                    ad:1f:a1:a6:41:83:f9:a1:17:29:73:bf:1f:98:0e:
                    95:89:dd:1d:86:9c:97:63:8b:35:78:39:77:8d:ea:
                    57:4a:7d:98:4e:5b:87:26:2a:ab:43:ec:30:7f:d9:
                    1e:65:e0:da:45:8f:d9:18:f7:b6:58:b7:c8:71:82:
                    4a:b3:8e:b5:0c:6e:bd:29:ea:fd:c0:87:a8:1e:89:
                    ab:fa:5d:44:c2:73:cf:80:5b:5c:7f:e6:ed:fb:73:
                    da:97:54:46:33:be:c9:fe:74:e5:60:d7:ac:c8:d7:
                    7c:d0:59:09:ed:6a:82:8a:80:67:98:d0:14:3a:6e:
                    07:69:23:ba:ed:6e:c1:d4:63:61:81:f4:0c:86:fa:
                    2c:5e:e6:70:39:df:c9:18:09:9a:10:43:97:ba:2e:
                    e3:88:b0:5f:f2:fb:25:8e:e5:6b:24:b1:e1:75:3a:
                    4f:4b:db:47:fd:68:39:e8:7a:68:20:cd:e9:5e:fd:
                    36:6b:cb:9e:50:06:19:cb:c0:bb:ba:ad:27:05:82:
                    41:58:a1:a5:96:27:77:2f:bc:57:b1:c1:91:c4:1b:
                    f9:1b:be:0e:6b:9a:13:ab:0b:b4:4a:97:8c:88:e4:
                    f5:cc:2d:35:97:9a:41:71:65:b0:6d:7e:79:78:de:
                    24:15
                Exponent: 65537 (0x10001)
        X509v3 extensions:
            X509v3 Subject Key Identifier: 
                BB:CA:1F:D4:7D:93:32:34:36:91:AF:83:74:2A:B0:DA:69:32:0A:A0
            X509v3 Authority Key Identifier: 
                18:89:22:37:6D:B0:56:C5:C4:B1:86:66:E1:33:FF:D5:2B:1B:A9:3A
            X509v3 Basic Constraints: 
                CA:TRUE
    Signature Algorithm: sha256WithRSAEncryption
    Signature Value:
        94:7d:a8:f8:81:7e:ed:89:0e:f7:bb:b5:5f:6d:af:7e:bb:23:
        e5:97:5d:7d:97:a3:15:c7:bb:37:a6:ac:fc:6e:b2:35:23:b0:
        7b:e2:22:95:56:14:f7:c1:63:55:d9:d4:63:30:fd:71:34:1a:
        4b:2b:1e:ea:21:92:00:f7:91:f9:13:c0:25:e6:b9:52:ec:97:
        be:ec:9d:2b:98:75:31:8a:e9:29:b1:32:b7:d1:de:90:01:2e:
        4b:d9:28:5a:cb:ed:ce:79:da:6d:bf:5e:ff:4a:ae:e6:93:68:
        de:56:65:0c:56:40:10:be:25:03:b6:fa:37:0d:9a:2a:d0:b2:
        90:4f:94:fc:62:39:9f:f7:db:b4:06:ec:6e:b7:4d:31:f2:9f:
        cc:ed:71:f9:74:ce:39:94:ea:e0:46:ad:2e:11:9f:64:b3:5a:
        87:8a:cf:b6:1a:c3:05:5d:ba:c9:59:c5:7c:2b:56:33:58:ca:
        51:dd:45:eb:42:f3:b5:91:3d:79:c4:4a:85:b3:a1:17:cb:d5:
        a5:92:d4:de:60:9a:3c:31:be:9b:28:8a:5b:2b:5d:34:7c:c6:
        e7:a3:62:20:5e:15:37:3d:dc:38:32:2f:8d:e0:e8:05:fa:eb:
        b9:43:01:dd:26:c2:85:30:08:30:0b:0e:92:bd:b4:56:52:e2:
        66:c8:7f:9f
-----BEGIN CERTIFICATE-----
MIIDsDCCApigAwIBAgIBAjANBgkqhkiG9w0BAQsFADBzMQswCQYDVQQGEwJDSDET
MBEGA1UECAwKQmFzZWwtVG93bjEOMAwGA1UEBwwFQmFzZWwxGzAZBgNVBAoMEkVy
bGlvIE1RVFQgUHJvamVjdDEQMA4GA1UECwwHVGVzdGluZzEQMA4GA1UEAwwHUm9v
dCBDQTAeFw0yNDA0MTEwNjU0MDJaFw0yOTA0MTAwNjU0MDJaMHIxCzAJBgNVBAYT
AkNIMRMwEQYDVQQIDApCYXNlbC1Ub3duMRswGQYDVQQKDBJFcmxpbyBNUVRUIFBy
b2plY3QxEDAOBgNVBAsMB1Rlc3RpbmcxHzAdBgNVBAMMFkFsdGVybmF0aXZlIFNp
Z25pbmcgQ0EwggEiMA0GCSqGSIb3DQEBAQUAA4IBDwAwggEKAoIBAQDnmsSmmq9O
mUXZ0pDSo60foaZBg/mhFylzvx+YDpWJ3R2GnJdjizV4OXeN6ldKfZhOW4cmKqtD
7DB/2R5l4NpFj9kY97ZYt8hxgkqzjrUMbr0p6v3Ah6geiav6XUTCc8+AW1x/5u37
c9qXVEYzvsn+dOVg16zI13zQWQntaoKKgGeY0BQ6bgdpI7rtbsHUY2GB9AyG+ixe
5nA538kYCZoQQ5e6LuOIsF/y+yWO5WskseF1Ok9L20f9aDnoemggzele/TZry55Q
BhnLwLu6rScFgkFYoaWWJ3cvvFexwZHEG/kbvg5rmhOrC7RKl4yI5PXMLTWXmkFx
ZbBtfnl43iQVAgMBAAGjUDBOMB0GA1UdDgQWBBS7yh/UfZMyNDaRr4N0KrDaaTIK
oDAfBgNVHSMEGDAWgBQYiSI3bbBWxcSxhmbhM//VKxupOjAMBgNVHRMEBTADAQH/
MA0GCSqGSIb3DQEBCwUAA4IBAQCUfaj4gX7tiQ73u7Vfba9+uyPll119l6MVx7s3
pqz8brI1I7B74iKVVhT3wWNV2dRjMP1xNBpLKx7qIZIA95H5E8Al5rlS7Je+7J0r
mHUxiukpsTK30d6QAS5L2Shay+3Oedptv17/Sq7mk2jeVmUMVkAQviUDtvo3DZoq
0LKQT5T8Yjmf99u0Buxut00x8p/M7XH5dM45lOrgRq0uEZ9ks1qHis+2GsMFXbrJ
WcV8K1YzWMpR3UXrQvO1kT15xEqFs6EXy9WlktTeYJo8Mb6bKIpbK100fMbno2Ig
XhU3Pdw4Mi+N4OgF+uu5QwHdJsKFMAgwCw6SvbRWUuJmyH+f
-----END CERTIFICATE-----
