Certificate:
    Data:
        Version: 3 (0x2)
        Serial Number: 1 (0x1)
    Signature Algorithm: sha256WithRSAEncryption
        Issuer: C=CH, ST=Basel-Town, L=Basel, O=Erlio MQTT Project, OU=Testing, CN=Root CA
        Validity
            Not Before: Sep 25 20:50:59 2014 GMT
            Not After : Sep 24 20:50:59 2019 GMT
        Subject: C=CH, ST=Basel-Town, O=Erlio MQTT Project, OU=Testing, CN=Signing CA
        Subject Public Key Info:
            Public Key Algorithm: rsaEncryption
                Public-Key: (1024 bit)
                Modulus:
                    00:d1:c6:83:ca:2f:6a:67:39:a8:f9:1f:cc:30:76:
                    33:f7:4c:54:7d:23:17:b6:5e:f0:56:3c:54:77:9a:
                    41:65:23:da:32:8b:c1:ed:c4:c2:a2:c2:d3:cb:dd:
                    47:ea:3f:23:d5:f3:3b:7a:99:14:1f:2e:3c:f4:40:
                    50:69:da:a8:48:7a:81:bf:e5:2f:35:69:4c:9f:32:
                    fd:4e:8b:27:b6:55:90:21:54:fb:d9:39:36:01:5f:
                    10:6c:c9:d2:9a:06:0b:44:e6:3e:37:ad:b2:89:24:
                    04:f8:ba:da:56:c7:5e:93:6a:7b:f6:31:24:2b:68:
                    cd:b7:59:db:e4:45:a7:6e:99
                Exponent: 65537 (0x10001)
        X509v3 extensions:
            X509v3 Subject Key Identifier: 
                29:3D:44:16:CF:33:33:CD:2D:60:DF:4D:A7:17:D0:0B:D4:E1:23:C0
            X509v3 Authority Key Identifier: 
                keyid:4F:FD:C1:5F:09:C4:A7:A6:DF:FF:98:95:A8:30:33:00:41:3D:45:7B

            X509v3 Basic Constraints: 
                CA:TRUE
    Signature Algorithm: sha256WithRSAEncryption
         a0:eb:b8:d8:9d:60:46:b8:2e:38:f6:f6:15:73:fe:69:e0:b3:
         11:cc:be:bb:d3:48:30:c9:45:fa:97:93:c5:5e:ed:0a:0e:5f:
         ac:09:c1:d9:db:b8:09:16:76:a0:7c:c6:22:db:94:fd:40:90:
         36:ac:62:98:78:2e:f6:11:84:48:f7:e5:7a:0f:b3:41:e7:e5:
         ed:e0:e8:64:39:a9:53:88:af:18:c7:1b:12:07:2a:16:88:c9:
         16:e2:28:4f:c2:61:18:d0:91:54:b7:49:8c:5a:1d:96:a7:de:
         47:77:8f:a1:46:0e:b7:c1:1f:f5:32:dd:67:e2:89:a5:25:e1:
         8e:79
-----BEGIN CERTIFICATE-----
MIICnzCCAgigAwIBAgIBATANBgkqhkiG9w0BAQsFADBzMQswCQYDVQQGEwJDSDET
MBEGA1UECAwKQmFzZWwtVG93bjEOMAwGA1UEBwwFQmFzZWwxGzAZBgNVBAoMEkVy
bGlvIE1RVFQgUHJvamVjdDEQMA4GA1UECwwHVGVzdGluZzEQMA4GA1UEAwwHUm9v
dCBDQTAeFw0xNDA5MjUyMDUwNTlaFw0xOTA5MjQyMDUwNTlaMGYxCzAJBgNVBAYT
AkNIMRMwEQYDVQQIDApCYXNlbC1Ub3duMRswGQYDVQQKDBJFcmxpbyBNUVRUIFBy
b2plY3QxEDAOBgNVBAsMB1Rlc3RpbmcxEzARBgNVBAMMClNpZ25pbmcgQ0EwgZ8w
DQYJKoZIhvcNAQEBBQADgY0AMIGJAoGBANHGg8ovamc5qPkfzDB2M/dMVH0jF7Ze
8FY8VHeaQWUj2jKLwe3EwqLC08vdR+o/I9XzO3qZFB8uPPRAUGnaqEh6gb/lLzVp
TJ8y/U6LJ7ZVkCFU+9k5NgFfEGzJ0poGC0TmPjetsokkBPi62lbHXpNqe/YxJCto
zbdZ2+RFp26ZAgMBAAGjUDBOMB0GA1UdDgQWBBQpPUQWzzMzzS1g302nF9AL1OEj
wDAfBgNVHSMEGDAWgBRP/cFfCcSnpt//mJWoMDMAQT1FezAMBgNVHRMEBTADAQH/
MA0GCSqGSIb3DQEBCwUAA4GBAKDruNidYEa4Ljj29hVz/mngsxHMvrvTSDDJRfqX
k8Ve7QoOX6wJwdnbuAkWdqB8xiLblP1AkDasYph4LvYRhEj35XoPs0Hn5e3g6GQ5
qVOIrxjHGxIHKhaIyRbiKE/CYRjQkVS3SYxaHZan3kd3j6FGDrfBH/Uy3WfiiaUl
4Y55
-----END CERTIFICATE-----
-----BEGIN CERTIFICATE-----
MIICtDCCAh2gAwIBAgIJAK9zuRjjDrpFMA0GCSqGSIb3DQEBCwUAMHMxCzAJBgNV
BAYTAkNIMRMwEQYDVQQIDApCYXNlbC1Ub3duMQ4wDAYDVQQHDAVCYXNlbDEbMBkG
A1UECgwSRXJsaW8gTVFUVCBQcm9qZWN0MRAwDgYDVQQLDAdUZXN0aW5nMRAwDgYD
VQQDDAdSb290IENBMB4XDTE0MDkyNTIwNTA1OVoXDTI0MDkyMjIwNTA1OVowczEL
MAkGA1UEBhMCQ0gxEzARBgNVBAgMCkJhc2VsLVRvd24xDjAMBgNVBAcMBUJhc2Vs
MRswGQYDVQQKDBJFcmxpbyBNUVRUIFByb2plY3QxEDAOBgNVBAsMB1Rlc3Rpbmcx
EDAOBgNVBAMMB1Jvb3QgQ0EwgZ8wDQYJKoZIhvcNAQEBBQADgY0AMIGJAoGBAOSx
rC08mw9U95PZhhZyCoBlUo+leM05UgXg6lMNWIk+irMZr9SsG3ub62b6OL61CoZh
FL9t4LsXQONEK7hudZi1CSPl9VOUffqpPkF33mfJy03EIXFl5xHx3VoTGgW/WT8x
1/tetScNGsKAjwEt0pWfqHqShkYKldaef2Okk4KVAgMBAAGjUDBOMB0GA1UdDgQW
BBRP/cFfCcSnpt//mJWoMDMAQT1FezAfBgNVHSMEGDAWgBRP/cFfCcSnpt//mJWo
MDMAQT1FezAMBgNVHRMEBTADAQH/MA0GCSqGSIb3DQEBCwUAA4GBALOtIrd03aT+
6nq6/E3nc3qr7PHEqcBH8Oviu3lE9asV0WBnn+CEGYnFBRz6cKqqRH7PB+WfiwDX
L9aC5hScuYASuJtPKgJ1qsxNjmuYSA8wPuWG6DdRJBUbFhNHjOHDqvyaoYC4w1ZE
TKwZaJVrEFx/xTqP4W3h8vheUIo8AF/I
-----END CERTIFICATE-----
