Certificate:
    Data:
        Version: 3 (0x2)
        Serial Number: 1 (0x1)
    Signature Algorithm: sha256WithRSAEncryption
        Issuer: C=CH, ST=Basel-Town, O=Erlio MQTT Project, OU=Testing, CN=Signing CA
        Validity
            Not Before: Sep 25 20:51:14 2014 GMT
            Not After : Sep 24 20:51:14 2019 GMT
        Subject: C=CH, ST=Basel-Town, L=Basel, O=Server, OU=Production, CN=localhost
        Subject Public Key Info:
            Public Key Algorithm: rsaEncryption
                Public-Key: (1024 bit)
                Modulus:
                    00:c3:81:3f:7f:ac:2d:ec:b0:b1:e6:15:49:b2:ee:
                    9f:17:27:6e:95:3a:76:4e:24:e4:05:24:bc:27:a0:
                    e9:ec:ae:2d:a8:07:c5:43:e3:d9:c5:73:e3:5e:6f:
                    28:29:01:77:c1:1d:4f:6c:c6:a6:6e:80:d7:dd:76:
                    3b:2c:54:cb:d9:5d:8c:c3:b3:86:d4:cc:76:e1:fa:
                    ac:07:9a:a9:43:30:aa:d6:ee:7a:da:da:0c:af:45:
                    84:6a:56:c7:e6:62:4b:28:2e:8c:4f:c6:a8:91:59:
                    4f:86:ea:35:05:47:ad:36:b4:46:fc:42:ce:76:f7:
                    f0:f6:1a:3f:14:33:82:83:0f
                Exponent: 65537 (0x10001)
        X509v3 extensions:
            X509v3 Basic Constraints: 
                CA:FALSE
            Netscape Comment: 
                OpenSSL Generated Certificate
            X509v3 Subject Key Identifier: 
                F6:F0:0E:75:BF:F9:5F:1B:AC:48:B7:08:E5:CD:18:64:67:B1:29:3D
            X509v3 Authority Key Identifier: 
                keyid:29:3D:44:16:CF:33:33:CD:2D:60:DF:4D:A7:17:D0:0B:D4:E1:23:C0

    Signature Algorithm: sha256WithRSAEncryption
         4f:17:60:6a:4a:09:7d:06:b1:20:20:16:54:74:f6:7d:c7:c4:
         99:a2:b2:87:a0:d3:58:be:50:d0:3e:7f:e7:0a:f8:5a:b4:12:
         c2:3c:5c:a5:cf:60:91:4b:33:e5:e7:3c:b5:73:5c:f6:d5:3d:
         e1:89:8e:e8:f5:38:06:96:23:f7:46:8f:8a:dd:f0:82:5b:2e:
         95:d0:fa:d1:ea:df:b3:eb:e9:f7:08:b3:da:26:23:d0:0f:93:
         b9:24:86:da:dd:c2:25:f1:46:e8:92:c3:a1:d5:21:29:97:0c:
         45:4a:0c:dd:0b:a8:7d:14:a6:35:e0:f6:27:d5:e6:37:d1:99:
         57:7f
-----BEGIN CERTIFICATE-----
MIICwzCCAiygAwIBAgIBATANBgkqhkiG9w0BAQsFADBmMQswCQYDVQQGEwJDSDET
MBEGA1UECAwKQmFzZWwtVG93bjEbMBkGA1UECgwSRXJsaW8gTVFUVCBQcm9qZWN0
MRAwDgYDVQQLDAdUZXN0aW5nMRMwEQYDVQQDDApTaWduaW5nIENBMB4XDTE0MDky
NTIwNTExNFoXDTE5MDkyNDIwNTExNFowbDELMAkGA1UEBhMCQ0gxEzARBgNVBAgM
CkJhc2VsLVRvd24xDjAMBgNVBAcMBUJhc2VsMQ8wDQYDVQQKDAZTZXJ2ZXIxEzAR
BgNVBAsMClByb2R1Y3Rpb24xEjAQBgNVBAMMCWxvY2FsaG9zdDCBnzANBgkqhkiG
9w0BAQEFAAOBjQAwgYkCgYEAw4E/f6wt7LCx5hVJsu6fFydulTp2TiTkBSS8J6Dp
7K4tqAfFQ+PZxXPjXm8oKQF3wR1PbMamboDX3XY7LFTL2V2Mw7OG1Mx24fqsB5qp
QzCq1u562toMr0WEalbH5mJLKC6MT8aokVlPhuo1BUetNrRG/ELOdvfw9ho/FDOC
gw8CAwEAAaN7MHkwCQYDVR0TBAIwADAsBglghkgBhvhCAQ0EHxYdT3BlblNTTCBH
ZW5lcmF0ZWQgQ2VydGlmaWNhdGUwHQYDVR0OBBYEFPbwDnW/+V8brEi3COXNGGRn
sSk9MB8GA1UdIwQYMBaAFCk9RBbPMzPNLWDfTacX0AvU4SPAMA0GCSqGSIb3DQEB
CwUAA4GBAE8XYGpKCX0GsSAgFlR09n3HxJmisoeg01i+UNA+f+cK+Fq0EsI8XKXP
YJFLM+XnPLVzXPbVPeGJjuj1OAaWI/dGj4rd8IJbLpXQ+tHq37Pr6fcIs9omI9AP
k7kkhtrdwiXxRuiSw6HVISmXDEVKDN0LqH0UpjXg9ifV5jfRmVd/
-----END CERTIFICATE-----
