Certificate:
    Data:
        Version: 3 (0x2)
        Serial Number: 1 (0x1)
        Signature Algorithm: sha256WithRSAEncryption
        Issuer: C=CH, ST=Basel-Town, L=Basel, O=Erlio MQTT Project, OU=Testing, CN=Root CA
        Validity
            Not Before: Jul 17 16:00:59 2026 GMT
            Not After : Jul 16 16:00:59 2031 GMT
        Subject: C=CH, ST=Basel-Town, O=Erlio MQTT Project, OU=Testing, CN=Signing CA
        Subject Public Key Info:
            Public Key Algorithm: rsaEncryption
                Public-Key: (2048 bit)
                Modulus:
                    00:b7:9d:78:d6:82:4c:9d:d5:dd:78:d6:f8:10:bf:
                    40:f6:1b:24:72:9f:91:be:51:95:fe:13:dc:08:61:
                    a6:33:8b:f2:cb:f8:83:ec:32:4d:4e:5b:3d:ba:e3:
                    b6:f4:66:c2:0f:42:f0:5e:6b:f9:91:c0:ef:0b:ae:
                    d2:84:41:b4:55:63:0c:c5:8e:98:b0:09:f5:fc:f0:
                    42:b2:10:48:12:56:09:5f:0d:0a:cf:06:9e:9d:99:
                    4c:01:05:0d:f3:8b:d9:53:5e:f7:2c:f8:0b:dd:2a:
                    f2:11:a2:39:c5:6f:c8:e9:ea:eb:df:f7:d6:53:52:
                    8e:ee:01:fe:06:62:f7:04:ce:73:19:41:c9:11:63:
                    61:ca:d4:b0:c9:e0:c0:5a:82:e3:b1:15:eb:ee:9f:
                    d1:18:3c:4b:ca:c3:d4:65:8b:ab:5d:57:fc:1a:7d:
                    53:4d:7d:db:b2:e2:6e:49:7b:f2:fd:62:a4:40:fb:
                    cb:86:8f:31:75:3c:d4:f8:d4:f2:7f:d5:53:20:b8:
                    4e:18:e9:f8:56:23:5d:2a:8e:b4:88:68:67:22:d2:
                    22:80:32:78:e4:d2:02:42:f1:00:74:16:3a:41:8d:
                    c1:cf:15:3b:e4:02:b4:df:82:8d:87:e7:7f:7d:39:
                    0b:1a:b3:da:b0:d7:10:6e:ef:94:c7:ac:a7:e2:19:
                    14:ab
                Exponent: 65537 (0x10001)
        X509v3 extensions:
            X509v3 Subject Key Identifier: 
                CE:03:2C:59:77:DB:FE:9E:01:8E:BF:40:94:FC:6C:22:77:BD:DB:47
            X509v3 Authority Key Identifier: 
                98:8D:05:50:41:67:F5:5D:E6:BE:2C:04:66:25:F0:6E:0B:56:CD:03
            X509v3 Basic Constraints: 
                CA:TRUE
    Signature Algorithm: sha256WithRSAEncryption
    Signature Value:
        81:65:68:d2:51:43:c3:9e:91:41:66:8b:2d:b1:de:5a:24:e1:
        f7:80:9c:2f:d8:9a:5d:27:34:81:50:95:3e:49:5b:cd:3b:c0:
        75:4e:5b:cc:24:1d:99:b1:8d:ae:86:5c:58:65:0e:a0:32:8c:
        7d:6f:f1:97:4e:c9:e1:54:56:21:07:91:f8:69:38:38:be:3d:
        35:b0:f9:3a:3b:87:98:e0:00:5d:1e:f0:3e:9a:69:02:a0:de:
        cd:ea:53:14:0e:d8:84:b0:36:22:73:9c:38:99:dd:9b:f5:95:
        16:cf:4b:9b:24:7a:e3:ca:b4:60:9e:93:b0:0a:68:ce:ee:82:
        53:b3:94:22:16:48:fe:2a:4b:84:53:86:90:a7:25:af:70:a1:
        b4:bb:24:e0:5f:5d:90:15:20:f2:7c:a4:0e:8b:08:b5:42:df:
        4a:32:de:1c:cd:32:43:c6:fc:f9:aa:2d:e2:01:95:eb:72:21:
        bd:5d:bf:0b:06:a3:53:d3:af:6e:71:de:2c:4a:54:c7:6c:e1:
        6d:56:fa:79:08:2b:98:a7:f0:1b:40:51:ed:c6:db:1f:5c:e4:
        5a:43:18:b3:e9:e4:c3:e9:ef:11:6d:c0:4f:a3:f0:c6:36:a7:
        d8:83:82:84:b0:c8:79:8a:73:f6:d4:68:13:ad:4c:6d:08:6b:
        d4:2e:8d:7e
-----BEGIN CERTIFICATE-----
MIIDpDCCAoygAwIBAgIBATANBgkqhkiG9w0BAQsFADBzMQswCQYDVQQGEwJDSDET
MBEGA1UECAwKQmFzZWwtVG93bjEOMAwGA1UEBwwFQmFzZWwxGzAZBgNVBAoMEkVy
bGlvIE1RVFQgUHJvamVjdDEQMA4GA1UECwwHVGVzdGluZzEQMA4GA1UEAwwHUm9v
dCBDQTAeFw0yNjA3MTcxNjAwNTlaFw0zMTA3MTYxNjAwNTlaMGYxCzAJBgNVBAYT
AkNIMRMwEQYDVQQIDApCYXNlbC1Ub3duMRswGQYDVQQKDBJFcmxpbyBNUVRUIFBy
b2plY3QxEDAOBgNVBAsMB1Rlc3RpbmcxEzARBgNVBAMMClNpZ25pbmcgQ0EwggEi
MA0GCSqGSIb3DQEBAQUAA4IBDwAwggEKAoIBAQC3nXjWgkyd1d141vgQv0D2GyRy
n5G+UZX+E9wIYaYzi/LL+IPsMk1OWz2647b0ZsIPQvBea/mRwO8LrtKEQbRVYwzF
jpiwCfX88EKyEEgSVglfDQrPBp6dmUwBBQ3zi9lTXvcs+AvdKvIRojnFb8jp6uvf
99ZTUo7uAf4GYvcEznMZQckRY2HK1LDJ4MBaguOxFevun9EYPEvKw9Rli6tdV/wa
fVNNfduy4m5Je/L9YqRA+8uGjzF1PNT41PJ/1VMguE4Y6fhWI10qjrSIaGci0iKA
Mnjk0gJC8QB0FjpBjcHPFTvkArTfgo2H5399OQsas9qw1xBu75THrKfiGRSrAgMB
AAGjUDBOMB0GA1UdDgQWBBTOAyxZd9v+ngGOv0CU/Gwid73bRzAfBgNVHSMEGDAW
gBSYjQVQQWf1Xea+LARmJfBuC1bNAzAMBgNVHRMEBTADAQH/MA0GCSqGSIb3DQEB
CwUAA4IBAQCBZWjSUUPDnpFBZostsd5aJOH3gJwv2JpdJzSBUJU+SVvNO8B1TlvM
JB2ZsY2uhlxYZQ6gMox9b/GXTsnhVFYhB5H4aTg4vj01sPk6O4eY4ABdHvA+mmkC
oN7N6lMUDtiEsDYic5w4md2b9ZUWz0ubJHrjyrRgnpOwCmjO7oJTs5QiFkj+KkuE
U4aQpyWvcKG0uyTgX12QFSDyfKQOiwi1Qt9KMt4czTJDxvz5qi3iAZXrciG9Xb8L
BqNT069ucd4sSlTHbOFtVvp5CCuYp/AbQFHtxtsfXORaQxiz6eTD6e8RbcBPo/DG
NqfYg4KEsMh5inP21GgTrUxtCGvULo1+
-----END CERTIFICATE-----
-----BEGIN CERTIFICATE-----
MIIDxDCCAqygAwIBAgIUWXCFH4aO0euPL2rdPZuxIMeFdKswDQYJKoZIhvcNAQEL
BQAwczELMAkGA1UEBhMCQ0gxEzARBgNVBAgMCkJhc2VsLVRvd24xDjAMBgNVBAcM
BUJhc2VsMRswGQYDVQQKDBJFcmxpbyBNUVRUIFByb2plY3QxEDAOBgNVBAsMB1Rl
c3RpbmcxEDAOBgNVBAMMB1Jvb3QgQ0EwHhcNMjYwNzE3MTYwMDU5WhcNMzYwNzE0
MTYwMDU5WjBzMQswCQYDVQQGEwJDSDETMBEGA1UECAwKQmFzZWwtVG93bjEOMAwG
A1UEBwwFQmFzZWwxGzAZBgNVBAoMEkVybGlvIE1RVFQgUHJvamVjdDEQMA4GA1UE
CwwHVGVzdGluZzEQMA4GA1UEAwwHUm9vdCBDQTCCASIwDQYJKoZIhvcNAQEBBQAD
ggEPADCCAQoCggEBAMP32kvhv8/BsAqCEMBYVtVyIX6hpmU44DHRqGMBFZkSN+Rh
9HTAAEimMYMLNXc4m4dsLaqV1Y+EIylADiwIC0APv6zo2ZtDl/YDzEIk1rDC20U1
b41kJ/pdW/ifATjh1YyhZhYVjv+zPUi4YtwMEZIEL8vtDVusPENoDv3mDMxTvMLV
6tvfEzTzAAE2f1O6/sKMSIiVWl78L8l0ZfKAzVEf15nchfjyU8s4rte2WFaV/8vY
AzeByxqQ6Yx7BkOmDPREY74MhXkuBxgp71Fe3+dgVuVedgfdIuiP5iRC4wUtGeoS
ImeIsyEVZaGdChaWRuBDawLWAgTu7ljMxeUM/BsCAwEAAaNQME4wHQYDVR0OBBYE
FJiNBVBBZ/Vd5r4sBGYl8G4LVs0DMB8GA1UdIwQYMBaAFJiNBVBBZ/Vd5r4sBGYl
8G4LVs0DMAwGA1UdEwQFMAMBAf8wDQYJKoZIhvcNAQELBQADggEBAEVfDvK4cT4E
UtofXbDPoqb5vgfdDk/fBqo5u11rDYwwelaMdHPta8iqAPz+fvGtIqPOwCbFrhkV
tHtQ8kH3RHmRVOy0RuoFb6TNf4LK+PJckgWEScN0lIS5CEFKbyzLDY9T76rtx3jQ
NpBybOrM7Hv2HDcn6Sp9+uw34Y5/+SVv9Vqb6+vd1WUtrMkaWjjlmkcO0NM/t0oN
3AfdmGlA5vfpCYlaX/pk2asPT0fCne0GzGjUUUZDOQGjhnj9E95ePhkH7iks1Z9d
1Eb36xhP9I/aGYoQ+cT7EtObneVgf0rLZDmYLZy55T6OKPEiIosvBM1jxu+TPKjx
PbN8QsLviEE=
-----END CERTIFICATE-----
