Certificate:
    Data:
        Version: 3 (0x2)
        Serial Number: 2 (0x2)
        Signature Algorithm: sha256WithRSAEncryption
        Issuer: C=CH, ST=Basel-Town, O=Erlio MQTT Project, OU=Testing, CN=Signing CA
        Validity
            Not Before: Jul 17 16:00:59 2026 GMT
            Not After : Jul 16 16:00:59 2031 GMT
        Subject: C=CH, ST=Basel-Town, L=Basel, O=Server, OU=Production, CN=notlocalhost
        Subject Public Key Info:
            Public Key Algorithm: rsaEncryption
                Public-Key: (2048 bit)
                Modulus:
                    00:9b:70:76:6c:1d:18:1f:4e:d7:09:46:e3:99:15:
                    5d:b7:59:38:9a:8c:93:c0:b4:49:46:12:d6:4c:1b:
                    ed:29:87:42:39:48:3e:6b:5f:4f:19:26:73:65:4e:
                    8b:73:ff:e6:e6:2c:9c:c0:10:c3:4a:05:01:2e:a4:
                    6e:38:92:9a:f9:43:de:3b:0d:a6:a5:01:b3:08:e4:
                    9c:7a:c1:87:71:2f:dd:3d:ad:69:17:27:5d:0a:10:
                    7b:3c:33:37:11:13:d8:0c:58:4c:61:44:f6:1f:54:
                    cb:e1:f7:22:9a:0b:eb:aa:5f:ba:e0:0c:58:4e:0c:
                    63:51:f7:f6:74:94:33:cc:5f:b3:7f:ce:30:50:b4:
                    c7:a8:8f:7c:d3:ea:2c:65:56:e4:2f:e5:f9:e2:73:
                    c4:71:27:76:17:a0:69:73:49:f3:a9:32:4d:26:7b:
                    ef:94:cb:25:81:a3:cf:41:9b:6d:0f:b7:f3:18:33:
                    79:01:c6:08:cb:6a:12:96:ba:9e:db:65:e6:cb:d0:
                    88:92:3b:8a:76:72:16:a8:87:00:fb:b7:d0:b8:26:
                    94:d2:b3:d9:93:17:c6:8a:04:57:53:1a:2f:a4:36:
                    92:87:81:a0:58:0d:14:63:f0:df:9e:ac:da:9d:cf:
                    c8:3d:80:03:d4:b3:e8:34:0d:28:29:3f:13:4a:05:
                    ea:d5
                Exponent: 65537 (0x10001)
        X509v3 extensions:
            X509v3 Basic Constraints: 
                CA:FALSE
            Netscape Comment: 
                OpenSSL Generated Certificate
            X509v3 Subject Key Identifier: 
                FE:37:E6:07:32:67:19:A4:ED:31:80:8D:F5:DA:06:52:CD:4A:DB:AB
            X509v3 Authority Key Identifier: 
                CE:03:2C:59:77:DB:FE:9E:01:8E:BF:40:94:FC:6C:22:77:BD:DB:47
            X509v3 Subject Alternative Name: 
                DNS:notlocalhost
    Signature Algorithm: sha256WithRSAEncryption
    Signature Value:
        26:9d:4a:0e:31:e0:58:4c:c5:98:f5:04:31:d6:3f:08:d5:99:
        42:d9:db:f6:a1:09:0b:cb:b5:ff:45:27:73:7e:d5:85:be:69:
        f2:d8:f3:cd:84:fb:0c:74:2a:99:83:f1:02:69:61:eb:73:f5:
        7b:1b:b6:26:4d:94:21:4d:fb:84:ac:8f:34:1d:0b:54:00:d0:
        b6:f5:20:44:e1:bc:5d:54:ee:0b:0c:95:b7:76:46:42:42:74:
        45:a1:93:16:f1:a5:4f:12:81:2d:cd:c1:f0:ce:54:c0:15:78:
        c9:42:6f:10:55:63:18:2b:7e:a2:37:0d:0a:7d:00:71:01:7b:
        40:12:78:07:1d:17:6c:58:8b:2f:ec:45:5e:84:88:2e:d4:02:
        78:22:01:14:ee:ee:a7:dc:eb:e9:19:f1:9c:9a:c1:9e:ec:26:
        e8:35:17:4f:7e:ac:a0:52:de:3e:04:2c:cd:61:e4:ab:62:4f:
        8b:30:8e:97:80:53:b7:52:57:91:d5:8f:5d:af:54:22:36:d7:
        02:ad:61:af:0c:f9:d9:3d:d2:e8:08:eb:84:5b:a3:73:d0:f2:
        79:da:2f:d2:26:45:76:52:91:8c:4d:80:83:bd:12:05:11:22:
        90:b9:1a:90:e6:55:31:06:bf:19:b8:4b:75:00:d3:6e:18:e6:
        13:c3:dc:b9
-----BEGIN CERTIFICATE-----
MIID5jCCAs6gAwIBAgIBAjANBgkqhkiG9w0BAQsFADBmMQswCQYDVQQGEwJDSDET
MBEGA1UECAwKQmFzZWwtVG93bjEbMBkGA1UECgwSRXJsaW8gTVFUVCBQcm9qZWN0
MRAwDgYDVQQLDAdUZXN0aW5nMRMwEQYDVQQDDApTaWduaW5nIENBMB4XDTI2MDcx
NzE2MDA1OVoXDTMxMDcxNjE2MDA1OVowbzELMAkGA1UEBhMCQ0gxEzARBgNVBAgM
CkJhc2VsLVRvd24xDjAMBgNVBAcMBUJhc2VsMQ8wDQYDVQQKDAZTZXJ2ZXIxEzAR
BgNVBAsMClByb2R1Y3Rpb24xFTATBgNVBAMMDG5vdGxvY2FsaG9zdDCCASIwDQYJ
KoZIhvcNAQEBBQADggEPADCCAQoCggEBAJtwdmwdGB9O1wlG45kVXbdZOJqMk8C0
SUYS1kwb7SmHQjlIPmtfTxkmc2VOi3P/5uYsnMAQw0oFAS6kbjiSmvlD3jsNpqUB
swjknHrBh3Ev3T2taRcnXQoQezwzNxET2AxYTGFE9h9Uy+H3IpoL66pfuuAMWE4M
Y1H39nSUM8xfs3/OMFC0x6iPfNPqLGVW5C/l+eJzxHEndhegaXNJ86kyTSZ775TL
JYGjz0GbbQ+38xgzeQHGCMtqEpa6nttl5svQiJI7inZyFqiHAPu30LgmlNKz2ZMX
xooEV1MaL6Q2koeBoFgNFGPw356s2p3PyD2AA9Sz6DQNKCk/E0oF6tUCAwEAAaOB
lTCBkjAJBgNVHRMEAjAAMCwGCWCGSAGG+EIBDQQfFh1PcGVuU1NMIEdlbmVyYXRl
ZCBDZXJ0aWZpY2F0ZTAdBgNVHQ4EFgQU/jfmBzJnGaTtMYCN9doGUs1K26swHwYD
VR0jBBgwFoAUzgMsWXfb/p4Bjr9AlPxsIne920cwFwYDVR0RBBAwDoIMbm90bG9j
YWxob3N0MA0GCSqGSIb3DQEBCwUAA4IBAQAmnUoOMeBYTMWY9QQx1j8I1ZlC2dv2
oQkLy7X/RSdzftWFvmny2PPNhPsMdCqZg/ECaWHrc/V7G7YmTZQhTfuErI80HQtU
ANC29SBE4bxdVO4LDJW3dkZCQnRFoZMW8aVPEoEtzcHwzlTAFXjJQm8QVWMYK36i
Nw0KfQBxAXtAEngHHRdsWIsv7EVehIgu1AJ4IgEU7u6n3OvpGfGcmsGe7CboNRdP
fqygUt4+BCzNYeSrYk+LMI6XgFO3UleR1Y9dr1QiNtcCrWGvDPnZPdLoCOuEW6Nz
0PJ52i/SJkV2UpGMTYCDvRIFESKQuRqQ5lUxBr8ZuEt1ANNuGOYTw9y5
-----END CERTIFICATE-----
