Certificate:
    Data:
        Version: 3 (0x2)
        Serial Number: 2 (0x2)
        Signature Algorithm: sha256WithRSAEncryption
        Issuer: C=CH, ST=Basel-Town, O=Erlio MQTT Project, OU=Testing, CN=Signing CA
        Validity
            Not Before: Apr 11 06:54:16 2024 GMT
            Not After : Apr 10 06:54:16 2029 GMT
        Subject: C=CH, ST=Basel-Town, L=Basel, O=Server, OU=Production, CN=notlocalhost
        Subject Public Key Info:
            Public Key Algorithm: rsaEncryption
                Public-Key: (2048 bit)
                Modulus:
                    00:c9:31:3c:df:ee:b9:4e:6e:12:85:a0:0f:c9:fb:
                    ef:9e:4c:75:c6:08:c7:f6:43:80:e2:d5:89:8f:2e:
                    76:c5:90:4e:4d:f0:77:3d:69:67:34:c3:f8:d3:11:
                    bd:0a:a7:84:25:8f:79:10:2c:24:b3:42:48:ab:e7:
                    ac:bd:af:bb:7c:0e:29:af:04:33:ee:78:93:76:c7:
                    56:90:4d:a2:bb:9f:56:72:f1:44:3e:87:56:d6:de:
                    f9:6c:3e:83:1c:7c:c4:87:d9:46:43:52:f7:72:8d:
                    cf:31:7e:1c:81:ad:fe:2d:f7:d4:94:e1:80:d0:ec:
                    62:db:67:42:be:b7:9a:93:c2:62:34:69:ae:c6:af:
                    ee:28:00:f9:ee:84:16:f1:5d:4a:90:e0:72:85:03:
                    54:39:f1:7a:26:cc:e9:d3:13:8c:58:fe:0b:30:39:
                    dd:4f:fa:9c:44:f9:ef:74:d7:35:cd:29:60:ff:2c:
                    c3:ea:9f:63:05:a9:84:cc:11:dd:f6:06:24:e0:f2:
                    f0:1a:ec:b8:a4:88:df:b7:6c:e6:97:3b:8c:fa:c6:
                    da:70:07:91:ea:fa:a8:5f:e0:dd:61:ca:d3:f6:f7:
                    3b:90:99:c4:21:52:80:9b:59:bc:94:70:be:a2:04:
                    ae:b2:8f:f8:b0:23:16:2f:34:f1:0f:fb:61:fa:67:
                    02:67
                Exponent: 65537 (0x10001)
        X509v3 extensions:
            X509v3 Basic Constraints: 
                CA:FALSE
            Netscape Comment: 
                OpenSSL Generated Certificate
            X509v3 Subject Key Identifier: 
                F3:DD:46:87:5D:2F:EC:F8:6B:FD:90:AB:BF:5D:7F:B6:DE:BA:DC:BE
            X509v3 Authority Key Identifier: 
                60:0D:CB:87:6C:97:8D:46:84:11:8D:75:31:03:A4:69:63:69:96:CF
    Signature Algorithm: sha256WithRSAEncryption
    Signature Value:
        44:2b:0b:17:4f:cf:e8:d7:cb:95:8f:c6:82:9e:f3:41:fb:0f:
        9d:51:63:1d:56:a4:2c:5a:02:db:91:84:53:4d:27:51:0c:86:
        5f:69:93:28:63:ec:e6:9a:72:95:83:1a:69:69:19:9a:c8:66:
        d4:42:93:01:f0:6d:98:9b:35:69:e1:a4:3f:90:cd:88:06:0f:
        a9:87:18:97:22:bf:17:72:14:01:63:7b:57:71:86:85:0d:5e:
        83:40:7f:68:36:5d:cb:18:b0:be:41:0b:81:c5:f2:b4:5c:ea:
        dd:42:ac:92:e6:15:c1:96:45:c0:e1:f1:3c:e3:76:7e:e0:3e:
        9a:bc:c6:b7:4e:10:41:2c:ce:7a:ab:ec:92:d0:54:5a:30:08:
        fe:cf:cb:1c:4b:d6:49:19:83:22:06:c1:a5:09:41:d8:03:1d:
        ae:34:87:1c:78:69:bb:de:b8:bd:8e:14:60:98:be:c2:c9:9d:
        77:4c:20:c8:4d:64:2d:dd:ea:0c:e0:39:58:35:80:4f:75:cf:
        41:9a:78:25:25:3c:3a:6c:07:29:1a:52:8e:f9:b5:21:a5:d4:
        70:58:6a:f8:18:b1:57:10:61:fb:2d:68:1a:85:48:1c:04:09:
        36:82:2f:bc:ac:b9:0e:19:87:33:e0:1e:f6:88:8f:d2:9a:76:
        dc:24:bc:7a
-----BEGIN CERTIFICATE-----
MIIDyzCCArOgAwIBAgIBAjANBgkqhkiG9w0BAQsFADBmMQswCQYDVQQGEwJDSDET
MBEGA1UECAwKQmFzZWwtVG93bjEbMBkGA1UECgwSRXJsaW8gTVFUVCBQcm9qZWN0
MRAwDgYDVQQLDAdUZXN0aW5nMRMwEQYDVQQDDApTaWduaW5nIENBMB4XDTI0MDQx
MTA2NTQxNloXDTI5MDQxMDA2NTQxNlowbzELMAkGA1UEBhMCQ0gxEzARBgNVBAgM
CkJhc2VsLVRvd24xDjAMBgNVBAcMBUJhc2VsMQ8wDQYDVQQKDAZTZXJ2ZXIxEzAR
BgNVBAsMClByb2R1Y3Rpb24xFTATBgNVBAMMDG5vdGxvY2FsaG9zdDCCASIwDQYJ
KoZIhvcNAQEBBQADggEPADCCAQoCggEBAMkxPN/uuU5uEoWgD8n7755MdcYIx/ZD
gOLViY8udsWQTk3wdz1pZzTD+NMRvQqnhCWPeRAsJLNCSKvnrL2vu3wOKa8EM+54
k3bHVpBNorufVnLxRD6HVtbe+Ww+gxx8xIfZRkNS93KNzzF+HIGt/i331JThgNDs
YttnQr63mpPCYjRprsav7igA+e6EFvFdSpDgcoUDVDnxeibM6dMTjFj+CzA53U/6
nET573TXNc0pYP8sw+qfYwWphMwR3fYGJODy8BrsuKSI37ds5pc7jPrG2nAHker6
qF/g3WHK0/b3O5CZxCFSgJtZvJRwvqIErrKP+LAjFi808Q/7YfpnAmcCAwEAAaN7
MHkwCQYDVR0TBAIwADAsBglghkgBhvhCAQ0EHxYdT3BlblNTTCBHZW5lcmF0ZWQg
Q2VydGlmaWNhdGUwHQYDVR0OBBYEFPPdRoddL+z4a/2Qq79df7beuty+MB8GA1Ud
IwQYMBaAFGANy4dsl41GhBGNdTEDpGljaZbPMA0GCSqGSIb3DQEBCwUAA4IBAQBE
KwsXT8/o18uVj8aCnvNB+w+dUWMdVqQsWgLbkYRTTSdRDIZfaZMoY+zmmnKVgxpp
aRmayGbUQpMB8G2YmzVp4aQ/kM2IBg+phxiXIr8XchQBY3tXcYaFDV6DQH9oNl3L
GLC+QQuBxfK0XOrdQqyS5hXBlkXA4fE843Z+4D6avMa3ThBBLM56q+yS0FRaMAj+
z8scS9ZJGYMiBsGlCUHYAx2uNIcceGm73ri9jhRgmL7CyZ13TCDITWQt3eoM4DlY
NYBPdc9BmnglJTw6bAcpGlKO+bUhpdRwWGr4GLFXEGH7LWgahUgcBAk2gi+8rLkO
GYcz4B72iI/SmnbcJLx6
-----END CERTIFICATE-----
