Certificate:
    Data:
        Version: 3 (0x2)
        Serial Number: 3 (0x3)
        Signature Algorithm: sha256WithRSAEncryption
        Issuer: C=CH, ST=Basel-Town, O=Erlio MQTT Project, OU=Testing, CN=Signing CA
        Validity
            Not Before: Apr 11 06:54:22 2024 GMT
            Not After : Apr 10 06:54:22 2029 GMT
        Subject: C=CH, ST=Basel-Town, L=Basel, O=Server, OU=Production, CN=test client
        Subject Public Key Info:
            Public Key Algorithm: rsaEncryption
                Public-Key: (2048 bit)
                Modulus:
                    00:c9:60:50:58:ac:38:f8:ca:a9:81:30:cf:2d:ee:
                    28:75:3a:53:de:31:a3:89:c1:55:97:69:71:62:b9:
                    f0:0c:94:52:bf:e0:5a:42:ec:74:a2:4e:58:08:2c:
                    22:82:9e:c0:d1:35:74:c5:70:6e:c5:04:7f:65:e9:
                    0e:17:a0:dd:76:87:ac:8f:7b:e8:7b:d4:f7:c5:27:
                    ce:15:b1:20:b1:c7:7b:37:f4:36:b2:83:4b:f9:c3:
                    f0:3d:7b:8b:f9:fe:87:38:b3:e8:9d:27:81:86:aa:
                    5c:fd:fb:45:a5:e1:4d:92:39:55:0e:53:be:00:bd:
                    77:41:6c:8c:c0:98:6d:7e:5f:ee:26:80:9f:6d:20:
                    ab:c8:d1:a8:c0:e0:11:f8:aa:8b:bf:4e:9b:24:d0:
                    3e:eb:02:30:18:17:ce:31:8f:7c:3b:6a:bc:ab:69:
                    fb:e2:a9:a3:ea:05:2c:d5:d3:0a:30:77:a4:6d:89:
                    48:18:f2:9d:bd:52:7b:d3:68:52:3c:84:4c:aa:e7:
                    c7:6f:fb:2d:aa:20:ac:db:39:09:2b:8a:58:24:60:
                    e3:be:1a:ba:5f:5a:18:cf:76:f2:b8:ca:88:09:39:
                    ce:c9:75:00:3c:7a:41:63:7d:92:e7:b6:0c:12:f6:
                    d6:2b:d3:6d:a6:cc:5a:e6:a0:cc:c8:7e:9f:a4:37:
                    99:1d
                Exponent: 65537 (0x10001)
        X509v3 extensions:
            X509v3 Basic Constraints: 
                CA:FALSE
            Netscape Comment: 
                OpenSSL Generated Certificate
            X509v3 Subject Key Identifier: 
                9E:11:FD:B9:95:85:7F:68:16:76:63:3E:78:9B:F5:C5:26:08:44:7C
            X509v3 Authority Key Identifier: 
                60:0D:CB:87:6C:97:8D:46:84:11:8D:75:31:03:A4:69:63:69:96:CF
    Signature Algorithm: sha256WithRSAEncryption
    Signature Value:
        0d:92:97:8a:88:c4:f8:44:e3:c8:79:7f:bd:be:51:3c:38:9a:
        11:46:df:32:8b:48:f4:b1:92:1e:43:3f:63:74:a1:21:cc:1e:
        57:49:5d:c6:1f:82:d8:0c:e0:33:8d:a9:d1:5b:57:09:17:3f:
        18:02:13:c9:5d:e6:c0:a0:ae:08:56:dd:83:29:a3:3e:d3:04:
        51:a5:26:11:19:4e:20:7b:5d:18:e8:a9:a8:d4:3e:44:2a:c2:
        8d:8a:7e:07:21:40:2a:ed:aa:0b:83:de:fb:62:ea:24:59:ee:
        b4:60:94:ce:f9:17:6a:a6:15:f2:7e:4f:29:fc:d2:a1:e0:f5:
        1c:a9:fa:ee:72:2b:2f:76:4c:83:f0:c4:b5:17:c0:1a:4b:24:
        06:f4:2c:9d:51:d8:cc:6e:13:8b:cb:99:e7:33:4a:7f:65:90:
        e3:f0:c7:41:60:a4:27:20:1a:3c:c0:ec:2f:57:90:d5:4e:1a:
        e7:9f:42:70:09:5e:22:c2:04:b1:dd:76:e4:ed:33:fa:b9:c6:
        90:8e:f6:71:2a:db:8b:94:50:98:1b:ae:e1:3f:92:73:7a:c6:
        af:e5:62:4f:38:77:82:ed:14:ee:30:2e:47:71:53:2d:04:da:
        43:66:59:6d:7d:33:6e:db:1f:bb:17:d7:3b:b0:d8:d3:50:49:
        a4:ea:cb:a3
-----BEGIN CERTIFICATE-----
MIIDyjCCArKgAwIBAgIBAzANBgkqhkiG9w0BAQsFADBmMQswCQYDVQQGEwJDSDET
MBEGA1UECAwKQmFzZWwtVG93bjEbMBkGA1UECgwSRXJsaW8gTVFUVCBQcm9qZWN0
MRAwDgYDVQQLDAdUZXN0aW5nMRMwEQYDVQQDDApTaWduaW5nIENBMB4XDTI0MDQx
MTA2NTQyMloXDTI5MDQxMDA2NTQyMlowbjELMAkGA1UEBhMCQ0gxEzARBgNVBAgM
CkJhc2VsLVRvd24xDjAMBgNVBAcMBUJhc2VsMQ8wDQYDVQQKDAZTZXJ2ZXIxEzAR
BgNVBAsMClByb2R1Y3Rpb24xFDASBgNVBAMMC3Rlc3QgY2xpZW50MIIBIjANBgkq
hkiG9w0BAQEFAAOCAQ8AMIIBCgKCAQEAyWBQWKw4+MqpgTDPLe4odTpT3jGjicFV
l2lxYrnwDJRSv+BaQux0ok5YCCwigp7A0TV0xXBuxQR/ZekOF6Dddoesj3voe9T3
xSfOFbEgscd7N/Q2soNL+cPwPXuL+f6HOLPonSeBhqpc/ftFpeFNkjlVDlO+AL13
QWyMwJhtfl/uJoCfbSCryNGowOAR+KqLv06bJNA+6wIwGBfOMY98O2q8q2n74qmj
6gUs1dMKMHekbYlIGPKdvVJ702hSPIRMqufHb/stqiCs2zkJK4pYJGDjvhq6X1oY
z3byuMqICTnOyXUAPHpBY32S57YMEvbWK9Ntpsxa5qDMyH6fpDeZHQIDAQABo3sw
eTAJBgNVHRMEAjAAMCwGCWCGSAGG+EIBDQQfFh1PcGVuU1NMIEdlbmVyYXRlZCBD
ZXJ0aWZpY2F0ZTAdBgNVHQ4EFgQUnhH9uZWFf2gWdmM+eJv1xSYIRHwwHwYDVR0j
BBgwFoAUYA3Lh2yXjUaEEY11MQOkaWNpls8wDQYJKoZIhvcNAQELBQADggEBAA2S
l4qIxPhE48h5f72+UTw4mhFG3zKLSPSxkh5DP2N0oSHMHldJXcYfgtgM4DONqdFb
VwkXPxgCE8ld5sCgrghW3YMpoz7TBFGlJhEZTiB7XRjoqajUPkQqwo2KfgchQCrt
qguD3vti6iRZ7rRglM75F2qmFfJ+Tyn80qHg9Ryp+u5yKy92TIPwxLUXwBpLJAb0
LJ1R2MxuE4vLmeczSn9lkOPwx0FgpCcgGjzA7C9XkNVOGuefQnAJXiLCBLHdduTt
M/q5xpCO9nEq24uUUJgbruE/knN6xq/lYk84d4LtFO4wLkdxUy0E2kNmWW19M27b
H7sX1zuw2NNQSaTqy6M=
-----END CERTIFICATE-----
