Certificate:
    Data:
        Version: 3 (0x2)
        Serial Number: 3 (0x3)
        Signature Algorithm: sha256WithRSAEncryption
        Issuer: C=CH, ST=Basel-Town, O=Erlio MQTT Project, OU=Testing, CN=Signing CA
        Validity
            Not Before: Aug 20 00:00:00 2012 GMT
            Not After : Aug 21 00:00:00 2012 GMT
        Subject: C=CH, ST=Basel-Town, L=Basel, O=Server, OU=Production, CN=localhost
        Subject Public Key Info:
            Public Key Algorithm: rsaEncryption
                Public-Key: (2048 bit)
                Modulus:
                    00:da:26:f4:4c:6e:92:bf:6b:4f:90:9e:b8:d8:a5:
                    a4:c9:c0:cd:4e:2c:06:fe:97:14:a8:f5:0a:2a:22:
                    66:6c:48:fd:aa:87:35:4b:50:3c:89:a5:67:89:a9:
                    01:4d:0e:eb:81:74:83:69:32:c3:af:70:f2:ed:d6:
                    bf:ba:5c:e3:a3:b0:b1:d9:6a:1a:c2:21:ae:27:c9:
                    2a:d1:7f:9c:7f:60:89:ff:fb:ec:d9:32:6b:38:cc:
                    df:1e:92:75:9d:50:03:9d:d3:01:63:1f:fd:94:39:
                    03:86:b4:61:c8:3d:f1:42:d6:68:43:20:12:28:a6:
                    39:5f:d9:67:2c:5c:d2:d1:65:b9:76:00:bf:42:7b:
                    16:77:e2:dc:a9:1b:26:0f:51:70:87:02:17:32:6b:
                    1b:ad:a8:7e:24:a4:9a:ee:54:1b:cb:f1:dd:db:cc:
                    0f:da:3a:3c:77:b3:81:52:41:c9:32:54:15:e6:aa:
                    f1:e9:89:db:df:1f:ca:87:a2:3c:e2:9c:a3:0b:5b:
                    09:ae:51:e9:2b:20:7c:01:5f:4b:56:37:f3:8c:3c:
                    44:e2:3f:76:4e:f7:3d:82:de:b3:46:cf:b9:b7:6f:
                    2d:3b:9a:68:d8:6f:ee:60:41:23:de:bf:65:d4:8c:
                    9d:f3:a6:6e:c8:60:c0:11:31:56:a2:a5:16:29:39:
                    c6:7f
                Exponent: 65537 (0x10001)
        X509v3 extensions:
            X509v3 Basic Constraints: 
                CA:FALSE
            Netscape Comment: 
                OpenSSL Generated Certificate
            X509v3 Subject Key Identifier: 
                63:50:8F:73:9A:E4:56:AC:23:79:C2:A9:A1:25:B9:F1:58:F0:75:FB
            X509v3 Authority Key Identifier: 
                CE:03:2C:59:77:DB:FE:9E:01:8E:BF:40:94:FC:6C:22:77:BD:DB:47
            X509v3 Subject Alternative Name: 
                DNS:localhost, IP Address:127.0.0.1, IP Address:0:0:0:0:0:0:0:1
    Signature Algorithm: sha256WithRSAEncryption
    Signature Value:
        4f:16:46:8f:05:2d:a9:76:1a:4f:f9:a9:2f:59:cb:ae:4c:1c:
        ca:c4:64:5f:0a:b2:de:b8:03:f8:b3:0f:73:1e:e5:c8:bc:51:
        b7:7c:b6:6d:2a:72:02:af:35:79:d6:15:83:4b:18:53:5f:4d:
        00:ec:ad:6c:8d:88:b3:88:95:50:f9:8e:f1:a1:88:67:cb:6c:
        39:76:7b:a9:c3:5d:2d:56:a7:4f:d8:d7:ec:a9:f0:38:7c:0f:
        78:2e:a3:24:61:39:b4:50:76:81:3e:42:43:0b:60:cf:75:27:
        6e:0f:5d:04:1c:10:02:91:ea:95:c0:af:fe:64:66:9f:d0:35:
        c0:ce:63:3d:6a:d5:f8:87:5a:f1:51:37:8b:05:fc:8c:17:8b:
        21:bf:d2:30:61:fc:94:51:34:7b:98:2d:12:45:90:23:dc:a8:
        f1:aa:e7:04:6b:63:82:70:27:47:c4:87:ae:dd:ea:68:14:b8:
        a9:06:c4:c2:9a:92:ed:ed:f3:16:b2:55:a6:25:75:79:46:aa:
        9f:ed:f9:d1:d3:45:94:f5:b1:3a:0a:24:1b:61:13:7a:61:39:
        99:c8:d8:41:2a:2f:a6:cf:cc:b0:92:36:9b:eb:2a:39:17:ae:
        b1:7c:99:e1:08:6b:5e:c9:da:35:67:f6:14:99:df:00:c7:dd:
        33:ad:e4:e6
-----BEGIN CERTIFICATE-----
MIID+DCCAuCgAwIBAgIBAzANBgkqhkiG9w0BAQsFADBmMQswCQYDVQQGEwJDSDET
MBEGA1UECAwKQmFzZWwtVG93bjEbMBkGA1UECgwSRXJsaW8gTVFUVCBQcm9qZWN0
MRAwDgYDVQQLDAdUZXN0aW5nMRMwEQYDVQQDDApTaWduaW5nIENBMB4XDTEyMDgy
MDAwMDAwMFoXDTEyMDgyMTAwMDAwMFowbDELMAkGA1UEBhMCQ0gxEzARBgNVBAgM
CkJhc2VsLVRvd24xDjAMBgNVBAcMBUJhc2VsMQ8wDQYDVQQKDAZTZXJ2ZXIxEzAR
BgNVBAsMClByb2R1Y3Rpb24xEjAQBgNVBAMMCWxvY2FsaG9zdDCCASIwDQYJKoZI
hvcNAQEBBQADggEPADCCAQoCggEBANom9Exukr9rT5CeuNilpMnAzU4sBv6XFKj1
CioiZmxI/aqHNUtQPImlZ4mpAU0O64F0g2kyw69w8u3Wv7pc46OwsdlqGsIhrifJ
KtF/nH9gif/77NkyazjM3x6SdZ1QA53TAWMf/ZQ5A4a0Ycg98ULWaEMgEiimOV/Z
Zyxc0tFluXYAv0J7Fnfi3KkbJg9RcIcCFzJrG62ofiSkmu5UG8vx3dvMD9o6PHez
gVJByTJUFeaq8emJ298fyoeiPOKcowtbCa5R6SsgfAFfS1Y384w8ROI/dk73PYLe
s0bPubdvLTuaaNhv7mBBI96/ZdSMnfOmbshgwBExVqKlFik5xn8CAwEAAaOBqjCB
pzAJBgNVHRMEAjAAMCwGCWCGSAGG+EIBDQQfFh1PcGVuU1NMIEdlbmVyYXRlZCBD
ZXJ0aWZpY2F0ZTAdBgNVHQ4EFgQUY1CPc5rkVqwjecKpoSW58VjwdfswHwYDVR0j
BBgwFoAUzgMsWXfb/p4Bjr9AlPxsIne920cwLAYDVR0RBCUwI4IJbG9jYWxob3N0
hwR/AAABhxAAAAAAAAAAAAAAAAAAAAABMA0GCSqGSIb3DQEBCwUAA4IBAQBPFkaP
BS2pdhpP+akvWcuuTBzKxGRfCrLeuAP4sw9zHuXIvFG3fLZtKnICrzV51hWDSxhT
X00A7K1sjYiziJVQ+Y7xoYhny2w5dnupw10tVqdP2NfsqfA4fA94LqMkYTm0UHaB
PkJDC2DPdSduD10EHBACkeqVwK/+ZGaf0DXAzmM9atX4h1rxUTeLBfyMF4shv9Iw
YfyUUTR7mC0SRZAj3KjxqucEa2OCcCdHxIeu3epoFLipBsTCmpLt7fMWslWmJXV5
Rqqf7fnR00WU9bE6CiQbYRN6YTmZyNhBKi+mz8ywkjab6yo5F66xfJnhCGteydo1
Z/YUmd8Ax90zreTm
-----END CERTIFICATE-----
